
stm32f446xx.elf:     file format elf32-littlearm

Sections:
Idx Name          Size      VMA       LMA       File off  Algn
  0 .isr_vector   000001c4  08000000  08000000  00010000  2**0
                  CONTENTS, ALLOC, LOAD, READONLY, DATA
  1 .text         00001ee8  080001d0  080001d0  000101d0  2**4
                  CONTENTS, ALLOC, LOAD, READONLY, CODE
  2 .rodata       0000004c  080020b8  080020b8  000120b8  2**2
                  CONTENTS, ALLOC, LOAD, READONLY, DATA
  3 .ARM.extab    00000000  08002104  08002104  0002007c  2**0
                  CONTENTS
  4 .ARM          00000000  08002104  08002104  0002007c  2**0
                  CONTENTS
  5 .preinit_array 00000000  08002104  08002104  0002007c  2**0
                  CONTENTS, ALLOC, LOAD, DATA
  6 .init_array   00000004  08002104  08002104  00012104  2**2
                  CONTENTS, ALLOC, LOAD, DATA
  7 .fini_array   00000004  08002108  08002108  00012108  2**2
                  CONTENTS, ALLOC, LOAD, DATA
  8 .data         0000007c  20000000  0800210c  00020000  2**2
                  CONTENTS, ALLOC, LOAD, DATA
  9 .bss          00000064  2000007c  08002188  0002007c  2**2
                  ALLOC
 10 ._user_heap_stack 00000600  200000e0  08002188  000200e0  2**0
                  ALLOC
 11 .ARM.attributes 0000002a  00000000  00000000  0002007c  2**0
                  CONTENTS, READONLY
 12 .debug_info   00005500  00000000  00000000  000200a6  2**0
                  CONTENTS, READONLY, DEBUGGING
 13 .debug_abbrev 00000d79  00000000  00000000  000255a6  2**0
                  CONTENTS, READONLY, DEBUGGING
 14 .debug_aranges 00000250  00000000  00000000  00026320  2**3
                  CONTENTS, READONLY, DEBUGGING
 15 .debug_ranges 000001e8  00000000  00000000  00026570  2**3
                  CONTENTS, READONLY, DEBUGGING
 16 .debug_macro  00003f44  00000000  00000000  00026758  2**0
                  CONTENTS, READONLY, DEBUGGING
 17 .debug_line   00002f01  00000000  00000000  0002a69c  2**0
                  CONTENTS, READONLY, DEBUGGING
 18 .debug_str    0000ca22  00000000  00000000  0002d59d  2**0
                  CONTENTS, READONLY, DEBUGGING
 19 .comment      0000007b  00000000  00000000  00039fbf  2**0
                  CONTENTS, READONLY
 20 .debug_frame  00000bf4  00000000  00000000  0003a03c  2**2
                  CONTENTS, READONLY, DEBUGGING

Disassembly of section .text:

080001d0 <__do_global_dtors_aux>:
 80001d0:	b510      	push	{r4, lr}
 80001d2:	4c05      	ldr	r4, [pc, #20]	; (80001e8 <__do_global_dtors_aux+0x18>)
 80001d4:	7823      	ldrb	r3, [r4, #0]
 80001d6:	b933      	cbnz	r3, 80001e6 <__do_global_dtors_aux+0x16>
 80001d8:	4b04      	ldr	r3, [pc, #16]	; (80001ec <__do_global_dtors_aux+0x1c>)
 80001da:	b113      	cbz	r3, 80001e2 <__do_global_dtors_aux+0x12>
 80001dc:	4804      	ldr	r0, [pc, #16]	; (80001f0 <__do_global_dtors_aux+0x20>)
 80001de:	f3af 8000 	nop.w
 80001e2:	2301      	movs	r3, #1
 80001e4:	7023      	strb	r3, [r4, #0]
 80001e6:	bd10      	pop	{r4, pc}
 80001e8:	2000007c 	.word	0x2000007c
 80001ec:	00000000 	.word	0x00000000
 80001f0:	080020a0 	.word	0x080020a0

080001f4 <frame_dummy>:
 80001f4:	b508      	push	{r3, lr}
 80001f6:	4b03      	ldr	r3, [pc, #12]	; (8000204 <frame_dummy+0x10>)
 80001f8:	b11b      	cbz	r3, 8000202 <frame_dummy+0xe>
 80001fa:	4903      	ldr	r1, [pc, #12]	; (8000208 <frame_dummy+0x14>)
 80001fc:	4803      	ldr	r0, [pc, #12]	; (800020c <frame_dummy+0x18>)
 80001fe:	f3af 8000 	nop.w
 8000202:	bd08      	pop	{r3, pc}
 8000204:	00000000 	.word	0x00000000
 8000208:	20000080 	.word	0x20000080
 800020c:	080020a0 	.word	0x080020a0

08000210 <strlen>:
 8000210:	4603      	mov	r3, r0
 8000212:	f813 2b01 	ldrb.w	r2, [r3], #1
 8000216:	2a00      	cmp	r2, #0
 8000218:	d1fb      	bne.n	8000212 <strlen+0x2>
 800021a:	1a18      	subs	r0, r3, r0
 800021c:	3801      	subs	r0, #1
 800021e:	4770      	bx	lr

08000220 <memchr>:
 8000220:	f001 01ff 	and.w	r1, r1, #255	; 0xff
 8000224:	2a10      	cmp	r2, #16
 8000226:	db2b      	blt.n	8000280 <memchr+0x60>
 8000228:	f010 0f07 	tst.w	r0, #7
 800022c:	d008      	beq.n	8000240 <memchr+0x20>
 800022e:	f810 3b01 	ldrb.w	r3, [r0], #1
 8000232:	3a01      	subs	r2, #1
 8000234:	428b      	cmp	r3, r1
 8000236:	d02d      	beq.n	8000294 <memchr+0x74>
 8000238:	f010 0f07 	tst.w	r0, #7
 800023c:	b342      	cbz	r2, 8000290 <memchr+0x70>
 800023e:	d1f6      	bne.n	800022e <memchr+0xe>
 8000240:	b4f0      	push	{r4, r5, r6, r7}
 8000242:	ea41 2101 	orr.w	r1, r1, r1, lsl #8
 8000246:	ea41 4101 	orr.w	r1, r1, r1, lsl #16
 800024a:	f022 0407 	bic.w	r4, r2, #7
 800024e:	f07f 0700 	mvns.w	r7, #0
 8000252:	2300      	movs	r3, #0
 8000254:	e8f0 5602 	ldrd	r5, r6, [r0], #8
 8000258:	3c08      	subs	r4, #8
 800025a:	ea85 0501 	eor.w	r5, r5, r1
 800025e:	ea86 0601 	eor.w	r6, r6, r1
 8000262:	fa85 f547 	uadd8	r5, r5, r7
 8000266:	faa3 f587 	sel	r5, r3, r7
 800026a:	fa86 f647 	uadd8	r6, r6, r7
 800026e:	faa5 f687 	sel	r6, r5, r7
 8000272:	b98e      	cbnz	r6, 8000298 <memchr+0x78>
 8000274:	d1ee      	bne.n	8000254 <memchr+0x34>
 8000276:	bcf0      	pop	{r4, r5, r6, r7}
 8000278:	f001 01ff 	and.w	r1, r1, #255	; 0xff
 800027c:	f002 0207 	and.w	r2, r2, #7
 8000280:	b132      	cbz	r2, 8000290 <memchr+0x70>
 8000282:	f810 3b01 	ldrb.w	r3, [r0], #1
 8000286:	3a01      	subs	r2, #1
 8000288:	ea83 0301 	eor.w	r3, r3, r1
 800028c:	b113      	cbz	r3, 8000294 <memchr+0x74>
 800028e:	d1f8      	bne.n	8000282 <memchr+0x62>
 8000290:	2000      	movs	r0, #0
 8000292:	4770      	bx	lr
 8000294:	3801      	subs	r0, #1
 8000296:	4770      	bx	lr
 8000298:	2d00      	cmp	r5, #0
 800029a:	bf06      	itte	eq
 800029c:	4635      	moveq	r5, r6
 800029e:	3803      	subeq	r0, #3
 80002a0:	3807      	subne	r0, #7
 80002a2:	f015 0f01 	tst.w	r5, #1
 80002a6:	d107      	bne.n	80002b8 <memchr+0x98>
 80002a8:	3001      	adds	r0, #1
 80002aa:	f415 7f80 	tst.w	r5, #256	; 0x100
 80002ae:	bf02      	ittt	eq
 80002b0:	3001      	addeq	r0, #1
 80002b2:	f415 3fc0 	tsteq.w	r5, #98304	; 0x18000
 80002b6:	3001      	addeq	r0, #1
 80002b8:	bcf0      	pop	{r4, r5, r6, r7}
 80002ba:	3801      	subs	r0, #1
 80002bc:	4770      	bx	lr
 80002be:	bf00      	nop

080002c0 <__aeabi_frsub>:
 80002c0:	f080 4000 	eor.w	r0, r0, #2147483648	; 0x80000000
 80002c4:	e002      	b.n	80002cc <__addsf3>
 80002c6:	bf00      	nop

080002c8 <__aeabi_fsub>:
 80002c8:	f081 4100 	eor.w	r1, r1, #2147483648	; 0x80000000

080002cc <__addsf3>:
 80002cc:	0042      	lsls	r2, r0, #1
 80002ce:	bf1f      	itttt	ne
 80002d0:	ea5f 0341 	movsne.w	r3, r1, lsl #1
 80002d4:	ea92 0f03 	teqne	r2, r3
 80002d8:	ea7f 6c22 	mvnsne.w	ip, r2, asr #24
 80002dc:	ea7f 6c23 	mvnsne.w	ip, r3, asr #24
 80002e0:	d06a      	beq.n	80003b8 <__addsf3+0xec>
 80002e2:	ea4f 6212 	mov.w	r2, r2, lsr #24
 80002e6:	ebd2 6313 	rsbs	r3, r2, r3, lsr #24
 80002ea:	bfc1      	itttt	gt
 80002ec:	18d2      	addgt	r2, r2, r3
 80002ee:	4041      	eorgt	r1, r0
 80002f0:	4048      	eorgt	r0, r1
 80002f2:	4041      	eorgt	r1, r0
 80002f4:	bfb8      	it	lt
 80002f6:	425b      	neglt	r3, r3
 80002f8:	2b19      	cmp	r3, #25
 80002fa:	bf88      	it	hi
 80002fc:	4770      	bxhi	lr
 80002fe:	f010 4f00 	tst.w	r0, #2147483648	; 0x80000000
 8000302:	f440 0000 	orr.w	r0, r0, #8388608	; 0x800000
 8000306:	f020 407f 	bic.w	r0, r0, #4278190080	; 0xff000000
 800030a:	bf18      	it	ne
 800030c:	4240      	negne	r0, r0
 800030e:	f011 4f00 	tst.w	r1, #2147483648	; 0x80000000
 8000312:	f441 0100 	orr.w	r1, r1, #8388608	; 0x800000
 8000316:	f021 417f 	bic.w	r1, r1, #4278190080	; 0xff000000
 800031a:	bf18      	it	ne
 800031c:	4249      	negne	r1, r1
 800031e:	ea92 0f03 	teq	r2, r3
 8000322:	d03f      	beq.n	80003a4 <__addsf3+0xd8>
 8000324:	f1a2 0201 	sub.w	r2, r2, #1
 8000328:	fa41 fc03 	asr.w	ip, r1, r3
 800032c:	eb10 000c 	adds.w	r0, r0, ip
 8000330:	f1c3 0320 	rsb	r3, r3, #32
 8000334:	fa01 f103 	lsl.w	r1, r1, r3
 8000338:	f000 4300 	and.w	r3, r0, #2147483648	; 0x80000000
 800033c:	d502      	bpl.n	8000344 <__addsf3+0x78>
 800033e:	4249      	negs	r1, r1
 8000340:	eb60 0040 	sbc.w	r0, r0, r0, lsl #1
 8000344:	f5b0 0f00 	cmp.w	r0, #8388608	; 0x800000
 8000348:	d313      	bcc.n	8000372 <__addsf3+0xa6>
 800034a:	f1b0 7f80 	cmp.w	r0, #16777216	; 0x1000000
 800034e:	d306      	bcc.n	800035e <__addsf3+0x92>
 8000350:	0840      	lsrs	r0, r0, #1
 8000352:	ea4f 0131 	mov.w	r1, r1, rrx
 8000356:	f102 0201 	add.w	r2, r2, #1
 800035a:	2afe      	cmp	r2, #254	; 0xfe
 800035c:	d251      	bcs.n	8000402 <__addsf3+0x136>
 800035e:	f1b1 4f00 	cmp.w	r1, #2147483648	; 0x80000000
 8000362:	eb40 50c2 	adc.w	r0, r0, r2, lsl #23
 8000366:	bf08      	it	eq
 8000368:	f020 0001 	biceq.w	r0, r0, #1
 800036c:	ea40 0003 	orr.w	r0, r0, r3
 8000370:	4770      	bx	lr
 8000372:	0049      	lsls	r1, r1, #1
 8000374:	eb40 0000 	adc.w	r0, r0, r0
 8000378:	f410 0f00 	tst.w	r0, #8388608	; 0x800000
 800037c:	f1a2 0201 	sub.w	r2, r2, #1
 8000380:	d1ed      	bne.n	800035e <__addsf3+0x92>
 8000382:	fab0 fc80 	clz	ip, r0
 8000386:	f1ac 0c08 	sub.w	ip, ip, #8
 800038a:	ebb2 020c 	subs.w	r2, r2, ip
 800038e:	fa00 f00c 	lsl.w	r0, r0, ip
 8000392:	bfaa      	itet	ge
 8000394:	eb00 50c2 	addge.w	r0, r0, r2, lsl #23
 8000398:	4252      	neglt	r2, r2
 800039a:	4318      	orrge	r0, r3
 800039c:	bfbc      	itt	lt
 800039e:	40d0      	lsrlt	r0, r2
 80003a0:	4318      	orrlt	r0, r3
 80003a2:	4770      	bx	lr
 80003a4:	f092 0f00 	teq	r2, #0
 80003a8:	f481 0100 	eor.w	r1, r1, #8388608	; 0x800000
 80003ac:	bf06      	itte	eq
 80003ae:	f480 0000 	eoreq.w	r0, r0, #8388608	; 0x800000
 80003b2:	3201      	addeq	r2, #1
 80003b4:	3b01      	subne	r3, #1
 80003b6:	e7b5      	b.n	8000324 <__addsf3+0x58>
 80003b8:	ea4f 0341 	mov.w	r3, r1, lsl #1
 80003bc:	ea7f 6c22 	mvns.w	ip, r2, asr #24
 80003c0:	bf18      	it	ne
 80003c2:	ea7f 6c23 	mvnsne.w	ip, r3, asr #24
 80003c6:	d021      	beq.n	800040c <__addsf3+0x140>
 80003c8:	ea92 0f03 	teq	r2, r3
 80003cc:	d004      	beq.n	80003d8 <__addsf3+0x10c>
 80003ce:	f092 0f00 	teq	r2, #0
 80003d2:	bf08      	it	eq
 80003d4:	4608      	moveq	r0, r1
 80003d6:	4770      	bx	lr
 80003d8:	ea90 0f01 	teq	r0, r1
 80003dc:	bf1c      	itt	ne
 80003de:	2000      	movne	r0, #0
 80003e0:	4770      	bxne	lr
 80003e2:	f012 4f7f 	tst.w	r2, #4278190080	; 0xff000000
 80003e6:	d104      	bne.n	80003f2 <__addsf3+0x126>
 80003e8:	0040      	lsls	r0, r0, #1
 80003ea:	bf28      	it	cs
 80003ec:	f040 4000 	orrcs.w	r0, r0, #2147483648	; 0x80000000
 80003f0:	4770      	bx	lr
 80003f2:	f112 7200 	adds.w	r2, r2, #33554432	; 0x2000000
 80003f6:	bf3c      	itt	cc
 80003f8:	f500 0000 	addcc.w	r0, r0, #8388608	; 0x800000
 80003fc:	4770      	bxcc	lr
 80003fe:	f000 4300 	and.w	r3, r0, #2147483648	; 0x80000000
 8000402:	f043 40fe 	orr.w	r0, r3, #2130706432	; 0x7f000000
 8000406:	f440 0000 	orr.w	r0, r0, #8388608	; 0x800000
 800040a:	4770      	bx	lr
 800040c:	ea7f 6222 	mvns.w	r2, r2, asr #24
 8000410:	bf16      	itet	ne
 8000412:	4608      	movne	r0, r1
 8000414:	ea7f 6323 	mvnseq.w	r3, r3, asr #24
 8000418:	4601      	movne	r1, r0
 800041a:	0242      	lsls	r2, r0, #9
 800041c:	bf06      	itte	eq
 800041e:	ea5f 2341 	movseq.w	r3, r1, lsl #9
 8000422:	ea90 0f01 	teqeq	r0, r1
 8000426:	f440 0080 	orrne.w	r0, r0, #4194304	; 0x400000
 800042a:	4770      	bx	lr

0800042c <__aeabi_ui2f>:
 800042c:	f04f 0300 	mov.w	r3, #0
 8000430:	e004      	b.n	800043c <__aeabi_i2f+0x8>
 8000432:	bf00      	nop

08000434 <__aeabi_i2f>:
 8000434:	f010 4300 	ands.w	r3, r0, #2147483648	; 0x80000000
 8000438:	bf48      	it	mi
 800043a:	4240      	negmi	r0, r0
 800043c:	ea5f 0c00 	movs.w	ip, r0
 8000440:	bf08      	it	eq
 8000442:	4770      	bxeq	lr
 8000444:	f043 4396 	orr.w	r3, r3, #1258291200	; 0x4b000000
 8000448:	4601      	mov	r1, r0
 800044a:	f04f 0000 	mov.w	r0, #0
 800044e:	e01c      	b.n	800048a <__aeabi_l2f+0x2a>

08000450 <__aeabi_ul2f>:
 8000450:	ea50 0201 	orrs.w	r2, r0, r1
 8000454:	bf08      	it	eq
 8000456:	4770      	bxeq	lr
 8000458:	f04f 0300 	mov.w	r3, #0
 800045c:	e00a      	b.n	8000474 <__aeabi_l2f+0x14>
 800045e:	bf00      	nop

08000460 <__aeabi_l2f>:
 8000460:	ea50 0201 	orrs.w	r2, r0, r1
 8000464:	bf08      	it	eq
 8000466:	4770      	bxeq	lr
 8000468:	f011 4300 	ands.w	r3, r1, #2147483648	; 0x80000000
 800046c:	d502      	bpl.n	8000474 <__aeabi_l2f+0x14>
 800046e:	4240      	negs	r0, r0
 8000470:	eb61 0141 	sbc.w	r1, r1, r1, lsl #1
 8000474:	ea5f 0c01 	movs.w	ip, r1
 8000478:	bf02      	ittt	eq
 800047a:	4684      	moveq	ip, r0
 800047c:	4601      	moveq	r1, r0
 800047e:	2000      	moveq	r0, #0
 8000480:	f043 43b6 	orr.w	r3, r3, #1526726656	; 0x5b000000
 8000484:	bf08      	it	eq
 8000486:	f1a3 5380 	subeq.w	r3, r3, #268435456	; 0x10000000
 800048a:	f5a3 0300 	sub.w	r3, r3, #8388608	; 0x800000
 800048e:	fabc f28c 	clz	r2, ip
 8000492:	3a08      	subs	r2, #8
 8000494:	eba3 53c2 	sub.w	r3, r3, r2, lsl #23
 8000498:	db10      	blt.n	80004bc <__aeabi_l2f+0x5c>
 800049a:	fa01 fc02 	lsl.w	ip, r1, r2
 800049e:	4463      	add	r3, ip
 80004a0:	fa00 fc02 	lsl.w	ip, r0, r2
 80004a4:	f1c2 0220 	rsb	r2, r2, #32
 80004a8:	f1bc 4f00 	cmp.w	ip, #2147483648	; 0x80000000
 80004ac:	fa20 f202 	lsr.w	r2, r0, r2
 80004b0:	eb43 0002 	adc.w	r0, r3, r2
 80004b4:	bf08      	it	eq
 80004b6:	f020 0001 	biceq.w	r0, r0, #1
 80004ba:	4770      	bx	lr
 80004bc:	f102 0220 	add.w	r2, r2, #32
 80004c0:	fa01 fc02 	lsl.w	ip, r1, r2
 80004c4:	f1c2 0220 	rsb	r2, r2, #32
 80004c8:	ea50 004c 	orrs.w	r0, r0, ip, lsl #1
 80004cc:	fa21 f202 	lsr.w	r2, r1, r2
 80004d0:	eb43 0002 	adc.w	r0, r3, r2
 80004d4:	bf08      	it	eq
 80004d6:	ea20 70dc 	biceq.w	r0, r0, ip, lsr #31
 80004da:	4770      	bx	lr

080004dc <__aeabi_fmul>:
 80004dc:	f04f 0cff 	mov.w	ip, #255	; 0xff
 80004e0:	ea1c 52d0 	ands.w	r2, ip, r0, lsr #23
 80004e4:	bf1e      	ittt	ne
 80004e6:	ea1c 53d1 	andsne.w	r3, ip, r1, lsr #23
 80004ea:	ea92 0f0c 	teqne	r2, ip
 80004ee:	ea93 0f0c 	teqne	r3, ip
 80004f2:	d06f      	beq.n	80005d4 <__aeabi_fmul+0xf8>
 80004f4:	441a      	add	r2, r3
 80004f6:	ea80 0c01 	eor.w	ip, r0, r1
 80004fa:	0240      	lsls	r0, r0, #9
 80004fc:	bf18      	it	ne
 80004fe:	ea5f 2141 	movsne.w	r1, r1, lsl #9
 8000502:	d01e      	beq.n	8000542 <__aeabi_fmul+0x66>
 8000504:	f04f 6300 	mov.w	r3, #134217728	; 0x8000000
 8000508:	ea43 1050 	orr.w	r0, r3, r0, lsr #5
 800050c:	ea43 1151 	orr.w	r1, r3, r1, lsr #5
 8000510:	fba0 3101 	umull	r3, r1, r0, r1
 8000514:	f00c 4000 	and.w	r0, ip, #2147483648	; 0x80000000
 8000518:	f5b1 0f00 	cmp.w	r1, #8388608	; 0x800000
 800051c:	bf3e      	ittt	cc
 800051e:	0049      	lslcc	r1, r1, #1
 8000520:	ea41 71d3 	orrcc.w	r1, r1, r3, lsr #31
 8000524:	005b      	lslcc	r3, r3, #1
 8000526:	ea40 0001 	orr.w	r0, r0, r1
 800052a:	f162 027f 	sbc.w	r2, r2, #127	; 0x7f
 800052e:	2afd      	cmp	r2, #253	; 0xfd
 8000530:	d81d      	bhi.n	800056e <__aeabi_fmul+0x92>
 8000532:	f1b3 4f00 	cmp.w	r3, #2147483648	; 0x80000000
 8000536:	eb40 50c2 	adc.w	r0, r0, r2, lsl #23
 800053a:	bf08      	it	eq
 800053c:	f020 0001 	biceq.w	r0, r0, #1
 8000540:	4770      	bx	lr
 8000542:	f090 0f00 	teq	r0, #0
 8000546:	f00c 4c00 	and.w	ip, ip, #2147483648	; 0x80000000
 800054a:	bf08      	it	eq
 800054c:	0249      	lsleq	r1, r1, #9
 800054e:	ea4c 2050 	orr.w	r0, ip, r0, lsr #9
 8000552:	ea40 2051 	orr.w	r0, r0, r1, lsr #9
 8000556:	3a7f      	subs	r2, #127	; 0x7f
 8000558:	bfc2      	ittt	gt
 800055a:	f1d2 03ff 	rsbsgt	r3, r2, #255	; 0xff
 800055e:	ea40 50c2 	orrgt.w	r0, r0, r2, lsl #23
 8000562:	4770      	bxgt	lr
 8000564:	f440 0000 	orr.w	r0, r0, #8388608	; 0x800000
 8000568:	f04f 0300 	mov.w	r3, #0
 800056c:	3a01      	subs	r2, #1
 800056e:	dc5d      	bgt.n	800062c <__aeabi_fmul+0x150>
 8000570:	f112 0f19 	cmn.w	r2, #25
 8000574:	bfdc      	itt	le
 8000576:	f000 4000 	andle.w	r0, r0, #2147483648	; 0x80000000
 800057a:	4770      	bxle	lr
 800057c:	f1c2 0200 	rsb	r2, r2, #0
 8000580:	0041      	lsls	r1, r0, #1
 8000582:	fa21 f102 	lsr.w	r1, r1, r2
 8000586:	f1c2 0220 	rsb	r2, r2, #32
 800058a:	fa00 fc02 	lsl.w	ip, r0, r2
 800058e:	ea5f 0031 	movs.w	r0, r1, rrx
 8000592:	f140 0000 	adc.w	r0, r0, #0
 8000596:	ea53 034c 	orrs.w	r3, r3, ip, lsl #1
 800059a:	bf08      	it	eq
 800059c:	ea20 70dc 	biceq.w	r0, r0, ip, lsr #31
 80005a0:	4770      	bx	lr
 80005a2:	f092 0f00 	teq	r2, #0
 80005a6:	f000 4c00 	and.w	ip, r0, #2147483648	; 0x80000000
 80005aa:	bf02      	ittt	eq
 80005ac:	0040      	lsleq	r0, r0, #1
 80005ae:	f410 0f00 	tsteq.w	r0, #8388608	; 0x800000
 80005b2:	3a01      	subeq	r2, #1
 80005b4:	d0f9      	beq.n	80005aa <__aeabi_fmul+0xce>
 80005b6:	ea40 000c 	orr.w	r0, r0, ip
 80005ba:	f093 0f00 	teq	r3, #0
 80005be:	f001 4c00 	and.w	ip, r1, #2147483648	; 0x80000000
 80005c2:	bf02      	ittt	eq
 80005c4:	0049      	lsleq	r1, r1, #1
 80005c6:	f411 0f00 	tsteq.w	r1, #8388608	; 0x800000
 80005ca:	3b01      	subeq	r3, #1
 80005cc:	d0f9      	beq.n	80005c2 <__aeabi_fmul+0xe6>
 80005ce:	ea41 010c 	orr.w	r1, r1, ip
 80005d2:	e78f      	b.n	80004f4 <__aeabi_fmul+0x18>
 80005d4:	ea0c 53d1 	and.w	r3, ip, r1, lsr #23
 80005d8:	ea92 0f0c 	teq	r2, ip
 80005dc:	bf18      	it	ne
 80005de:	ea93 0f0c 	teqne	r3, ip
 80005e2:	d00a      	beq.n	80005fa <__aeabi_fmul+0x11e>
 80005e4:	f030 4c00 	bics.w	ip, r0, #2147483648	; 0x80000000
 80005e8:	bf18      	it	ne
 80005ea:	f031 4c00 	bicsne.w	ip, r1, #2147483648	; 0x80000000
 80005ee:	d1d8      	bne.n	80005a2 <__aeabi_fmul+0xc6>
 80005f0:	ea80 0001 	eor.w	r0, r0, r1
 80005f4:	f000 4000 	and.w	r0, r0, #2147483648	; 0x80000000
 80005f8:	4770      	bx	lr
 80005fa:	f090 0f00 	teq	r0, #0
 80005fe:	bf17      	itett	ne
 8000600:	f090 4f00 	teqne	r0, #2147483648	; 0x80000000
 8000604:	4608      	moveq	r0, r1
 8000606:	f091 0f00 	teqne	r1, #0
 800060a:	f091 4f00 	teqne	r1, #2147483648	; 0x80000000
 800060e:	d014      	beq.n	800063a <__aeabi_fmul+0x15e>
 8000610:	ea92 0f0c 	teq	r2, ip
 8000614:	d101      	bne.n	800061a <__aeabi_fmul+0x13e>
 8000616:	0242      	lsls	r2, r0, #9
 8000618:	d10f      	bne.n	800063a <__aeabi_fmul+0x15e>
 800061a:	ea93 0f0c 	teq	r3, ip
 800061e:	d103      	bne.n	8000628 <__aeabi_fmul+0x14c>
 8000620:	024b      	lsls	r3, r1, #9
 8000622:	bf18      	it	ne
 8000624:	4608      	movne	r0, r1
 8000626:	d108      	bne.n	800063a <__aeabi_fmul+0x15e>
 8000628:	ea80 0001 	eor.w	r0, r0, r1
 800062c:	f000 4000 	and.w	r0, r0, #2147483648	; 0x80000000
 8000630:	f040 40fe 	orr.w	r0, r0, #2130706432	; 0x7f000000
 8000634:	f440 0000 	orr.w	r0, r0, #8388608	; 0x800000
 8000638:	4770      	bx	lr
 800063a:	f040 40fe 	orr.w	r0, r0, #2130706432	; 0x7f000000
 800063e:	f440 0040 	orr.w	r0, r0, #12582912	; 0xc00000
 8000642:	4770      	bx	lr

08000644 <__aeabi_fdiv>:
 8000644:	f04f 0cff 	mov.w	ip, #255	; 0xff
 8000648:	ea1c 52d0 	ands.w	r2, ip, r0, lsr #23
 800064c:	bf1e      	ittt	ne
 800064e:	ea1c 53d1 	andsne.w	r3, ip, r1, lsr #23
 8000652:	ea92 0f0c 	teqne	r2, ip
 8000656:	ea93 0f0c 	teqne	r3, ip
 800065a:	d069      	beq.n	8000730 <__aeabi_fdiv+0xec>
 800065c:	eba2 0203 	sub.w	r2, r2, r3
 8000660:	ea80 0c01 	eor.w	ip, r0, r1
 8000664:	0249      	lsls	r1, r1, #9
 8000666:	ea4f 2040 	mov.w	r0, r0, lsl #9
 800066a:	d037      	beq.n	80006dc <__aeabi_fdiv+0x98>
 800066c:	f04f 5380 	mov.w	r3, #268435456	; 0x10000000
 8000670:	ea43 1111 	orr.w	r1, r3, r1, lsr #4
 8000674:	ea43 1310 	orr.w	r3, r3, r0, lsr #4
 8000678:	f00c 4000 	and.w	r0, ip, #2147483648	; 0x80000000
 800067c:	428b      	cmp	r3, r1
 800067e:	bf38      	it	cc
 8000680:	005b      	lslcc	r3, r3, #1
 8000682:	f142 027d 	adc.w	r2, r2, #125	; 0x7d
 8000686:	f44f 0c00 	mov.w	ip, #8388608	; 0x800000
 800068a:	428b      	cmp	r3, r1
 800068c:	bf24      	itt	cs
 800068e:	1a5b      	subcs	r3, r3, r1
 8000690:	ea40 000c 	orrcs.w	r0, r0, ip
 8000694:	ebb3 0f51 	cmp.w	r3, r1, lsr #1
 8000698:	bf24      	itt	cs
 800069a:	eba3 0351 	subcs.w	r3, r3, r1, lsr #1
 800069e:	ea40 005c 	orrcs.w	r0, r0, ip, lsr #1
 80006a2:	ebb3 0f91 	cmp.w	r3, r1, lsr #2
 80006a6:	bf24      	itt	cs
 80006a8:	eba3 0391 	subcs.w	r3, r3, r1, lsr #2
 80006ac:	ea40 009c 	orrcs.w	r0, r0, ip, lsr #2
 80006b0:	ebb3 0fd1 	cmp.w	r3, r1, lsr #3
 80006b4:	bf24      	itt	cs
 80006b6:	eba3 03d1 	subcs.w	r3, r3, r1, lsr #3
 80006ba:	ea40 00dc 	orrcs.w	r0, r0, ip, lsr #3
 80006be:	011b      	lsls	r3, r3, #4
 80006c0:	bf18      	it	ne
 80006c2:	ea5f 1c1c 	movsne.w	ip, ip, lsr #4
 80006c6:	d1e0      	bne.n	800068a <__aeabi_fdiv+0x46>
 80006c8:	2afd      	cmp	r2, #253	; 0xfd
 80006ca:	f63f af50 	bhi.w	800056e <__aeabi_fmul+0x92>
 80006ce:	428b      	cmp	r3, r1
 80006d0:	eb40 50c2 	adc.w	r0, r0, r2, lsl #23
 80006d4:	bf08      	it	eq
 80006d6:	f020 0001 	biceq.w	r0, r0, #1
 80006da:	4770      	bx	lr
 80006dc:	f00c 4c00 	and.w	ip, ip, #2147483648	; 0x80000000
 80006e0:	ea4c 2050 	orr.w	r0, ip, r0, lsr #9
 80006e4:	327f      	adds	r2, #127	; 0x7f
 80006e6:	bfc2      	ittt	gt
 80006e8:	f1d2 03ff 	rsbsgt	r3, r2, #255	; 0xff
 80006ec:	ea40 50c2 	orrgt.w	r0, r0, r2, lsl #23
 80006f0:	4770      	bxgt	lr
 80006f2:	f440 0000 	orr.w	r0, r0, #8388608	; 0x800000
 80006f6:	f04f 0300 	mov.w	r3, #0
 80006fa:	3a01      	subs	r2, #1
 80006fc:	e737      	b.n	800056e <__aeabi_fmul+0x92>
 80006fe:	f092 0f00 	teq	r2, #0
 8000702:	f000 4c00 	and.w	ip, r0, #2147483648	; 0x80000000
 8000706:	bf02      	ittt	eq
 8000708:	0040      	lsleq	r0, r0, #1
 800070a:	f410 0f00 	tsteq.w	r0, #8388608	; 0x800000
 800070e:	3a01      	subeq	r2, #1
 8000710:	d0f9      	beq.n	8000706 <__aeabi_fdiv+0xc2>
 8000712:	ea40 000c 	orr.w	r0, r0, ip
 8000716:	f093 0f00 	teq	r3, #0
 800071a:	f001 4c00 	and.w	ip, r1, #2147483648	; 0x80000000
 800071e:	bf02      	ittt	eq
 8000720:	0049      	lsleq	r1, r1, #1
 8000722:	f411 0f00 	tsteq.w	r1, #8388608	; 0x800000
 8000726:	3b01      	subeq	r3, #1
 8000728:	d0f9      	beq.n	800071e <__aeabi_fdiv+0xda>
 800072a:	ea41 010c 	orr.w	r1, r1, ip
 800072e:	e795      	b.n	800065c <__aeabi_fdiv+0x18>
 8000730:	ea0c 53d1 	and.w	r3, ip, r1, lsr #23
 8000734:	ea92 0f0c 	teq	r2, ip
 8000738:	d108      	bne.n	800074c <__aeabi_fdiv+0x108>
 800073a:	0242      	lsls	r2, r0, #9
 800073c:	f47f af7d 	bne.w	800063a <__aeabi_fmul+0x15e>
 8000740:	ea93 0f0c 	teq	r3, ip
 8000744:	f47f af70 	bne.w	8000628 <__aeabi_fmul+0x14c>
 8000748:	4608      	mov	r0, r1
 800074a:	e776      	b.n	800063a <__aeabi_fmul+0x15e>
 800074c:	ea93 0f0c 	teq	r3, ip
 8000750:	d104      	bne.n	800075c <__aeabi_fdiv+0x118>
 8000752:	024b      	lsls	r3, r1, #9
 8000754:	f43f af4c 	beq.w	80005f0 <__aeabi_fmul+0x114>
 8000758:	4608      	mov	r0, r1
 800075a:	e76e      	b.n	800063a <__aeabi_fmul+0x15e>
 800075c:	f030 4c00 	bics.w	ip, r0, #2147483648	; 0x80000000
 8000760:	bf18      	it	ne
 8000762:	f031 4c00 	bicsne.w	ip, r1, #2147483648	; 0x80000000
 8000766:	d1ca      	bne.n	80006fe <__aeabi_fdiv+0xba>
 8000768:	f030 4200 	bics.w	r2, r0, #2147483648	; 0x80000000
 800076c:	f47f af5c 	bne.w	8000628 <__aeabi_fmul+0x14c>
 8000770:	f031 4300 	bics.w	r3, r1, #2147483648	; 0x80000000
 8000774:	f47f af3c 	bne.w	80005f0 <__aeabi_fmul+0x114>
 8000778:	e75f      	b.n	800063a <__aeabi_fmul+0x15e>
 800077a:	bf00      	nop

0800077c <__aeabi_f2uiz>:
 800077c:	0042      	lsls	r2, r0, #1
 800077e:	d20e      	bcs.n	800079e <__aeabi_f2uiz+0x22>
 8000780:	f1b2 4ffe 	cmp.w	r2, #2130706432	; 0x7f000000
 8000784:	d30b      	bcc.n	800079e <__aeabi_f2uiz+0x22>
 8000786:	f04f 039e 	mov.w	r3, #158	; 0x9e
 800078a:	ebb3 6212 	subs.w	r2, r3, r2, lsr #24
 800078e:	d409      	bmi.n	80007a4 <__aeabi_f2uiz+0x28>
 8000790:	ea4f 2300 	mov.w	r3, r0, lsl #8
 8000794:	f043 4300 	orr.w	r3, r3, #2147483648	; 0x80000000
 8000798:	fa23 f002 	lsr.w	r0, r3, r2
 800079c:	4770      	bx	lr
 800079e:	f04f 0000 	mov.w	r0, #0
 80007a2:	4770      	bx	lr
 80007a4:	f112 0f61 	cmn.w	r2, #97	; 0x61
 80007a8:	d101      	bne.n	80007ae <__aeabi_f2uiz+0x32>
 80007aa:	0242      	lsls	r2, r0, #9
 80007ac:	d102      	bne.n	80007b4 <__aeabi_f2uiz+0x38>
 80007ae:	f04f 30ff 	mov.w	r0, #4294967295
 80007b2:	4770      	bx	lr
 80007b4:	f04f 0000 	mov.w	r0, #0
 80007b8:	4770      	bx	lr
 80007ba:	bf00      	nop

080007bc <ADC_PeriClockControl>:
 * Params: 		struct ADC_RegDef_t* *pADCx - ADC base address
 * 				uint8_t EnOrDi - Enable or disable value
 *
 */
void ADC_PeriClockControl(ADC_RegDef_t *pADCx, uint8_t EnOrDi)
{
 80007bc:	b480      	push	{r7}
 80007be:	b083      	sub	sp, #12
 80007c0:	af00      	add	r7, sp, #0
 80007c2:	6078      	str	r0, [r7, #4]
 80007c4:	460b      	mov	r3, r1
 80007c6:	70fb      	strb	r3, [r7, #3]
	if (EnOrDi == ENABLE)
 80007c8:	78fb      	ldrb	r3, [r7, #3]
 80007ca:	2b01      	cmp	r3, #1
 80007cc:	d120      	bne.n	8000810 <ADC_PeriClockControl+0x54>
	{
		if (pADCx == ADC1)
 80007ce:	687b      	ldr	r3, [r7, #4]
 80007d0:	4a22      	ldr	r2, [pc, #136]	; (800085c <ADC_PeriClockControl+0xa0>)
 80007d2:	4293      	cmp	r3, r2
 80007d4:	d106      	bne.n	80007e4 <ADC_PeriClockControl+0x28>
		{
			ADC1_PCLK_EN();
 80007d6:	4b22      	ldr	r3, [pc, #136]	; (8000860 <ADC_PeriClockControl+0xa4>)
 80007d8:	6c5b      	ldr	r3, [r3, #68]	; 0x44
 80007da:	4a21      	ldr	r2, [pc, #132]	; (8000860 <ADC_PeriClockControl+0xa4>)
 80007dc:	f443 7380 	orr.w	r3, r3, #256	; 0x100
 80007e0:	6453      	str	r3, [r2, #68]	; 0x44
		else if (pADCx == ADC3)
		{
			ADC3_PCLK_DI();
		}
	}
}
 80007e2:	e035      	b.n	8000850 <ADC_PeriClockControl+0x94>
		else if (pADCx == ADC2)
 80007e4:	687b      	ldr	r3, [r7, #4]
 80007e6:	4a1f      	ldr	r2, [pc, #124]	; (8000864 <ADC_PeriClockControl+0xa8>)
 80007e8:	4293      	cmp	r3, r2
 80007ea:	d106      	bne.n	80007fa <ADC_PeriClockControl+0x3e>
			ADC2_PCLK_EN();
 80007ec:	4b1c      	ldr	r3, [pc, #112]	; (8000860 <ADC_PeriClockControl+0xa4>)
 80007ee:	6c5b      	ldr	r3, [r3, #68]	; 0x44
 80007f0:	4a1b      	ldr	r2, [pc, #108]	; (8000860 <ADC_PeriClockControl+0xa4>)
 80007f2:	f443 7300 	orr.w	r3, r3, #512	; 0x200
 80007f6:	6453      	str	r3, [r2, #68]	; 0x44
}
 80007f8:	e02a      	b.n	8000850 <ADC_PeriClockControl+0x94>
		else if (pADCx == ADC3)
 80007fa:	687b      	ldr	r3, [r7, #4]
 80007fc:	4a1a      	ldr	r2, [pc, #104]	; (8000868 <ADC_PeriClockControl+0xac>)
 80007fe:	4293      	cmp	r3, r2
 8000800:	d126      	bne.n	8000850 <ADC_PeriClockControl+0x94>
			ADC3_PCLK_EN();
 8000802:	4b17      	ldr	r3, [pc, #92]	; (8000860 <ADC_PeriClockControl+0xa4>)
 8000804:	6c5b      	ldr	r3, [r3, #68]	; 0x44
 8000806:	4a16      	ldr	r2, [pc, #88]	; (8000860 <ADC_PeriClockControl+0xa4>)
 8000808:	f443 6380 	orr.w	r3, r3, #1024	; 0x400
 800080c:	6453      	str	r3, [r2, #68]	; 0x44
}
 800080e:	e01f      	b.n	8000850 <ADC_PeriClockControl+0x94>
		if (pADCx == ADC1)
 8000810:	687b      	ldr	r3, [r7, #4]
 8000812:	4a12      	ldr	r2, [pc, #72]	; (800085c <ADC_PeriClockControl+0xa0>)
 8000814:	4293      	cmp	r3, r2
 8000816:	d106      	bne.n	8000826 <ADC_PeriClockControl+0x6a>
			ADC1_PCLK_DI();
 8000818:	4b11      	ldr	r3, [pc, #68]	; (8000860 <ADC_PeriClockControl+0xa4>)
 800081a:	6c5b      	ldr	r3, [r3, #68]	; 0x44
 800081c:	4a10      	ldr	r2, [pc, #64]	; (8000860 <ADC_PeriClockControl+0xa4>)
 800081e:	f423 7380 	bic.w	r3, r3, #256	; 0x100
 8000822:	6453      	str	r3, [r2, #68]	; 0x44
}
 8000824:	e014      	b.n	8000850 <ADC_PeriClockControl+0x94>
		else if (pADCx == ADC2)
 8000826:	687b      	ldr	r3, [r7, #4]
 8000828:	4a0e      	ldr	r2, [pc, #56]	; (8000864 <ADC_PeriClockControl+0xa8>)
 800082a:	4293      	cmp	r3, r2
 800082c:	d106      	bne.n	800083c <ADC_PeriClockControl+0x80>
			ADC2_PCLK_DI();
 800082e:	4b0c      	ldr	r3, [pc, #48]	; (8000860 <ADC_PeriClockControl+0xa4>)
 8000830:	6c5b      	ldr	r3, [r3, #68]	; 0x44
 8000832:	4a0b      	ldr	r2, [pc, #44]	; (8000860 <ADC_PeriClockControl+0xa4>)
 8000834:	f423 7300 	bic.w	r3, r3, #512	; 0x200
 8000838:	6453      	str	r3, [r2, #68]	; 0x44
}
 800083a:	e009      	b.n	8000850 <ADC_PeriClockControl+0x94>
		else if (pADCx == ADC3)
 800083c:	687b      	ldr	r3, [r7, #4]
 800083e:	4a0a      	ldr	r2, [pc, #40]	; (8000868 <ADC_PeriClockControl+0xac>)
 8000840:	4293      	cmp	r3, r2
 8000842:	d105      	bne.n	8000850 <ADC_PeriClockControl+0x94>
			ADC3_PCLK_DI();
 8000844:	4b06      	ldr	r3, [pc, #24]	; (8000860 <ADC_PeriClockControl+0xa4>)
 8000846:	6c5b      	ldr	r3, [r3, #68]	; 0x44
 8000848:	4a05      	ldr	r2, [pc, #20]	; (8000860 <ADC_PeriClockControl+0xa4>)
 800084a:	f423 6380 	bic.w	r3, r3, #1024	; 0x400
 800084e:	6453      	str	r3, [r2, #68]	; 0x44
}
 8000850:	bf00      	nop
 8000852:	370c      	adds	r7, #12
 8000854:	46bd      	mov	sp, r7
 8000856:	bc80      	pop	{r7}
 8000858:	4770      	bx	lr
 800085a:	bf00      	nop
 800085c:	40012000 	.word	0x40012000
 8000860:	40023800 	.word	0x40023800
 8000864:	40012100 	.word	0x40012100
 8000868:	40012200 	.word	0x40012200

0800086c <ADC_Init>:
 *
 * Params: 		struct ADC_Handle_t* *pADCx - ADC handle address
 *
 */
void ADC_Init(ADC_Handle_t *pADCxHandle)
{
 800086c:	b580      	push	{r7, lr}
 800086e:	b082      	sub	sp, #8
 8000870:	af00      	add	r7, sp, #0
 8000872:	6078      	str	r0, [r7, #4]
	// 1. Enable clock signal to the ADC
	ADC_PeriClockControl(pADCxHandle->pADCx, ENABLE);
 8000874:	687b      	ldr	r3, [r7, #4]
 8000876:	681b      	ldr	r3, [r3, #0]
 8000878:	2101      	movs	r1, #1
 800087a:	4618      	mov	r0, r3
 800087c:	f7ff ff9e 	bl	80007bc <ADC_PeriClockControl>

	// 2. Set the ADC clock prescaler
	ADC_COMM->CCR |= (uint32_t)(pADCxHandle->ADC_Config.ADC_PreSc << 16);
 8000880:	4b0b      	ldr	r3, [pc, #44]	; (80008b0 <ADC_Init+0x44>)
 8000882:	685b      	ldr	r3, [r3, #4]
 8000884:	687a      	ldr	r2, [r7, #4]
 8000886:	7952      	ldrb	r2, [r2, #5]
 8000888:	0412      	lsls	r2, r2, #16
 800088a:	4611      	mov	r1, r2
 800088c:	4a08      	ldr	r2, [pc, #32]	; (80008b0 <ADC_Init+0x44>)
 800088e:	430b      	orrs	r3, r1
 8000890:	6053      	str	r3, [r2, #4]

	// 3. Set ADC resolution
	pADCxHandle->pADCx->CR1 |= (uint32_t)(pADCxHandle->ADC_Config.ADC_Res << 24);
 8000892:	687b      	ldr	r3, [r7, #4]
 8000894:	681b      	ldr	r3, [r3, #0]
 8000896:	685a      	ldr	r2, [r3, #4]
 8000898:	687b      	ldr	r3, [r7, #4]
 800089a:	791b      	ldrb	r3, [r3, #4]
 800089c:	061b      	lsls	r3, r3, #24
 800089e:	4619      	mov	r1, r3
 80008a0:	687b      	ldr	r3, [r7, #4]
 80008a2:	681b      	ldr	r3, [r3, #0]
 80008a4:	430a      	orrs	r2, r1
 80008a6:	605a      	str	r2, [r3, #4]
}
 80008a8:	bf00      	nop
 80008aa:	3708      	adds	r7, #8
 80008ac:	46bd      	mov	sp, r7
 80008ae:	bd80      	pop	{r7, pc}
 80008b0:	40012300 	.word	0x40012300

080008b4 <ADC_OnOff>:
 * Params:		ADC_RegDef_t *pADCx - ADC base address
 * 				uint8_t EnOrDi - On or Off
 *
 */
static void ADC_OnOff(ADC_RegDef_t *pADCx, uint8_t EnOrDi)
{
 80008b4:	b480      	push	{r7}
 80008b6:	b083      	sub	sp, #12
 80008b8:	af00      	add	r7, sp, #0
 80008ba:	6078      	str	r0, [r7, #4]
 80008bc:	460b      	mov	r3, r1
 80008be:	70fb      	strb	r3, [r7, #3]
	if (EnOrDi == ENABLE)
 80008c0:	78fb      	ldrb	r3, [r7, #3]
 80008c2:	2b01      	cmp	r3, #1
 80008c4:	d106      	bne.n	80008d4 <ADC_OnOff+0x20>
	{
		pADCx->CR2 |= (1 << 0);
 80008c6:	687b      	ldr	r3, [r7, #4]
 80008c8:	689b      	ldr	r3, [r3, #8]
 80008ca:	f043 0201 	orr.w	r2, r3, #1
 80008ce:	687b      	ldr	r3, [r7, #4]
 80008d0:	609a      	str	r2, [r3, #8]
	}
	else
	{
		pADCx->CR2 &= ~(1 << 0);
	}
}
 80008d2:	e005      	b.n	80008e0 <ADC_OnOff+0x2c>
		pADCx->CR2 &= ~(1 << 0);
 80008d4:	687b      	ldr	r3, [r7, #4]
 80008d6:	689b      	ldr	r3, [r3, #8]
 80008d8:	f023 0201 	bic.w	r2, r3, #1
 80008dc:	687b      	ldr	r3, [r7, #4]
 80008de:	609a      	str	r2, [r3, #8]
}
 80008e0:	bf00      	nop
 80008e2:	370c      	adds	r7, #12
 80008e4:	46bd      	mov	sp, r7
 80008e6:	bc80      	pop	{r7}
 80008e8:	4770      	bx	lr

080008ea <ADC_GetFlagStatus>:
 * Params: 		struct ADC_RegDef_t *pADCx - ADC base address
 * 				uint8_t ADC_FLAG - flag being checked
 *
 */
uint8_t ADC_GetFlagStatus(ADC_RegDef_t *pADCx, uint8_t ADC_FLAG)
{
 80008ea:	b480      	push	{r7}
 80008ec:	b083      	sub	sp, #12
 80008ee:	af00      	add	r7, sp, #0
 80008f0:	6078      	str	r0, [r7, #4]
 80008f2:	460b      	mov	r3, r1
 80008f4:	70fb      	strb	r3, [r7, #3]
	return (pADCx->SR & ADC_FLAG);
 80008f6:	687b      	ldr	r3, [r7, #4]
 80008f8:	681b      	ldr	r3, [r3, #0]
 80008fa:	b2da      	uxtb	r2, r3
 80008fc:	78fb      	ldrb	r3, [r7, #3]
 80008fe:	4013      	ands	r3, r2
 8000900:	b2db      	uxtb	r3, r3
}
 8000902:	4618      	mov	r0, r3
 8000904:	370c      	adds	r7, #12
 8000906:	46bd      	mov	sp, r7
 8000908:	bc80      	pop	{r7}
 800090a:	4770      	bx	lr

0800090c <ADC_Read_Reg>:
 * 				uint8_t ADC_SMP_CYC - Number of cycle to take reading
 * 				uint8_t ADC_DAQ_MODE - Take single reading or continuous mode
 *
 */
uint16_t ADC_Read_Reg(ADC_Handle_t *pADCxHandle, uint8_t ADC_CHAN, uint8_t ADC_SMP_CYC)
{
 800090c:	b580      	push	{r7, lr}
 800090e:	b084      	sub	sp, #16
 8000910:	af00      	add	r7, sp, #0
 8000912:	6078      	str	r0, [r7, #4]
 8000914:	460b      	mov	r3, r1
 8000916:	70fb      	strb	r3, [r7, #3]
 8000918:	4613      	mov	r3, r2
 800091a:	70bb      	strb	r3, [r7, #2]
	// 1. Set the ADC On (Note: several steps b/w this and 'START' to allow stabilization time
	ADC_OnOff(pADCxHandle->pADCx, ENABLE);
 800091c:	687b      	ldr	r3, [r7, #4]
 800091e:	681b      	ldr	r3, [r3, #0]
 8000920:	2101      	movs	r1, #1
 8000922:	4618      	mov	r0, r3
 8000924:	f7ff ffc6 	bl	80008b4 <ADC_OnOff>

	// 2. Disable scan mode
	pADCxHandle->pADCx->CR1 &= ~(1 << 8);
 8000928:	687b      	ldr	r3, [r7, #4]
 800092a:	681b      	ldr	r3, [r3, #0]
 800092c:	685a      	ldr	r2, [r3, #4]
 800092e:	687b      	ldr	r3, [r7, #4]
 8000930:	681b      	ldr	r3, [r3, #0]
 8000932:	f422 7280 	bic.w	r2, r2, #256	; 0x100
 8000936:	605a      	str	r2, [r3, #4]

	// 3. Can take only single reading without non-blocking interrupt
	pADCxHandle->pADCx->CR2 &= ~(1 << 1);
 8000938:	687b      	ldr	r3, [r7, #4]
 800093a:	681b      	ldr	r3, [r3, #0]
 800093c:	689a      	ldr	r2, [r3, #8]
 800093e:	687b      	ldr	r3, [r7, #4]
 8000940:	681b      	ldr	r3, [r3, #0]
 8000942:	f022 0202 	bic.w	r2, r2, #2
 8000946:	609a      	str	r2, [r3, #8]

	// 4. Set number of channels in sequence to 1
	pADCxHandle->pADCx->SQR[0] &= ~(0xF << 20);
 8000948:	687b      	ldr	r3, [r7, #4]
 800094a:	681b      	ldr	r3, [r3, #0]
 800094c:	6ada      	ldr	r2, [r3, #44]	; 0x2c
 800094e:	687b      	ldr	r3, [r7, #4]
 8000950:	681b      	ldr	r3, [r3, #0]
 8000952:	f422 0270 	bic.w	r2, r2, #15728640	; 0xf00000
 8000956:	62da      	str	r2, [r3, #44]	; 0x2c

	// 5. Load the channel to be read
	pADCxHandle->pADCx->SQR[2] = (ADC_CHAN << 0);
 8000958:	687b      	ldr	r3, [r7, #4]
 800095a:	681b      	ldr	r3, [r3, #0]
 800095c:	78fa      	ldrb	r2, [r7, #3]
 800095e:	635a      	str	r2, [r3, #52]	; 0x34

	// 6. Number of sampling cycles
	uint8_t temp1 = 1 - ADC_CHAN / 10, temp2 = ADC_CHAN % 9;
 8000960:	78fb      	ldrb	r3, [r7, #3]
 8000962:	4a1f      	ldr	r2, [pc, #124]	; (80009e0 <ADC_Read_Reg+0xd4>)
 8000964:	fba2 2303 	umull	r2, r3, r2, r3
 8000968:	08db      	lsrs	r3, r3, #3
 800096a:	b2db      	uxtb	r3, r3
 800096c:	f1c3 0301 	rsb	r3, r3, #1
 8000970:	73fb      	strb	r3, [r7, #15]
 8000972:	78fa      	ldrb	r2, [r7, #3]
 8000974:	4b1b      	ldr	r3, [pc, #108]	; (80009e4 <ADC_Read_Reg+0xd8>)
 8000976:	fba3 1302 	umull	r1, r3, r3, r2
 800097a:	0859      	lsrs	r1, r3, #1
 800097c:	460b      	mov	r3, r1
 800097e:	00db      	lsls	r3, r3, #3
 8000980:	440b      	add	r3, r1
 8000982:	1ad3      	subs	r3, r2, r3
 8000984:	73bb      	strb	r3, [r7, #14]
	pADCxHandle->pADCx->SMPR[temp1] = (ADC_SMP_CYC << temp2);
 8000986:	78ba      	ldrb	r2, [r7, #2]
 8000988:	7bbb      	ldrb	r3, [r7, #14]
 800098a:	fa02 f103 	lsl.w	r1, r2, r3
 800098e:	687b      	ldr	r3, [r7, #4]
 8000990:	681a      	ldr	r2, [r3, #0]
 8000992:	7bfb      	ldrb	r3, [r7, #15]
 8000994:	3302      	adds	r3, #2
 8000996:	009b      	lsls	r3, r3, #2
 8000998:	4413      	add	r3, r2
 800099a:	6059      	str	r1, [r3, #4]

	// 7. Begin conversion
	pADCxHandle->pADCx->CR2 |= (1 << 30);
 800099c:	687b      	ldr	r3, [r7, #4]
 800099e:	681b      	ldr	r3, [r3, #0]
 80009a0:	689a      	ldr	r2, [r3, #8]
 80009a2:	687b      	ldr	r3, [r7, #4]
 80009a4:	681b      	ldr	r3, [r3, #0]
 80009a6:	f042 4280 	orr.w	r2, r2, #1073741824	; 0x40000000
 80009aa:	609a      	str	r2, [r3, #8]

	// 8. Hang till conversion complete
	while(!ADC_GetFlagStatus(pADCxHandle->pADCx, ADC_FLAG_EOC));
 80009ac:	bf00      	nop
 80009ae:	687b      	ldr	r3, [r7, #4]
 80009b0:	681b      	ldr	r3, [r3, #0]
 80009b2:	2102      	movs	r1, #2
 80009b4:	4618      	mov	r0, r3
 80009b6:	f7ff ff98 	bl	80008ea <ADC_GetFlagStatus>
 80009ba:	4603      	mov	r3, r0
 80009bc:	2b00      	cmp	r3, #0
 80009be:	d0f6      	beq.n	80009ae <ADC_Read_Reg+0xa2>

	// 9. Get reading from DR
	uint16_t data = pADCxHandle->pADCx->DR;
 80009c0:	687b      	ldr	r3, [r7, #4]
 80009c2:	681b      	ldr	r3, [r3, #0]
 80009c4:	6cdb      	ldr	r3, [r3, #76]	; 0x4c
 80009c6:	81bb      	strh	r3, [r7, #12]

	// 10. Return ADC to low power mode
	ADC_OnOff(pADCxHandle->pADCx, DISABLE);
 80009c8:	687b      	ldr	r3, [r7, #4]
 80009ca:	681b      	ldr	r3, [r3, #0]
 80009cc:	2100      	movs	r1, #0
 80009ce:	4618      	mov	r0, r3
 80009d0:	f7ff ff70 	bl	80008b4 <ADC_OnOff>

	return data;
 80009d4:	89bb      	ldrh	r3, [r7, #12]
}
 80009d6:	4618      	mov	r0, r3
 80009d8:	3710      	adds	r7, #16
 80009da:	46bd      	mov	sp, r7
 80009dc:	bd80      	pop	{r7, pc}
 80009de:	bf00      	nop
 80009e0:	cccccccd 	.word	0xcccccccd
 80009e4:	38e38e39 	.word	0x38e38e39

080009e8 <GPIO_PortCode>:
 *
 * Params: 		struct GPIO_RegDef_t* - GPIO register base address
 *
 */
uint8_t GPIO_PortCode(GPIO_RegDef_t *pGPIOx)
{
 80009e8:	b480      	push	{r7}
 80009ea:	b083      	sub	sp, #12
 80009ec:	af00      	add	r7, sp, #0
 80009ee:	6078      	str	r0, [r7, #4]
	if (pGPIOx == GPIOA)
 80009f0:	687b      	ldr	r3, [r7, #4]
 80009f2:	4a1a      	ldr	r2, [pc, #104]	; (8000a5c <GPIO_PortCode+0x74>)
 80009f4:	4293      	cmp	r3, r2
 80009f6:	d101      	bne.n	80009fc <GPIO_PortCode+0x14>
	{
		return 0;
 80009f8:	2300      	movs	r3, #0
 80009fa:	e02a      	b.n	8000a52 <GPIO_PortCode+0x6a>
	}
	else if (pGPIOx == GPIOB)
 80009fc:	687b      	ldr	r3, [r7, #4]
 80009fe:	4a18      	ldr	r2, [pc, #96]	; (8000a60 <GPIO_PortCode+0x78>)
 8000a00:	4293      	cmp	r3, r2
 8000a02:	d101      	bne.n	8000a08 <GPIO_PortCode+0x20>
	{
		return 1;
 8000a04:	2301      	movs	r3, #1
 8000a06:	e024      	b.n	8000a52 <GPIO_PortCode+0x6a>
	}
	else if (pGPIOx == GPIOC)
 8000a08:	687b      	ldr	r3, [r7, #4]
 8000a0a:	4a16      	ldr	r2, [pc, #88]	; (8000a64 <GPIO_PortCode+0x7c>)
 8000a0c:	4293      	cmp	r3, r2
 8000a0e:	d101      	bne.n	8000a14 <GPIO_PortCode+0x2c>
	{
		return 2;
 8000a10:	2302      	movs	r3, #2
 8000a12:	e01e      	b.n	8000a52 <GPIO_PortCode+0x6a>
	}
	else if (pGPIOx == GPIOD)
 8000a14:	687b      	ldr	r3, [r7, #4]
 8000a16:	4a14      	ldr	r2, [pc, #80]	; (8000a68 <GPIO_PortCode+0x80>)
 8000a18:	4293      	cmp	r3, r2
 8000a1a:	d101      	bne.n	8000a20 <GPIO_PortCode+0x38>
	{
		return 3;
 8000a1c:	2303      	movs	r3, #3
 8000a1e:	e018      	b.n	8000a52 <GPIO_PortCode+0x6a>
	}
	else if (pGPIOx == GPIOE)
 8000a20:	687b      	ldr	r3, [r7, #4]
 8000a22:	4a12      	ldr	r2, [pc, #72]	; (8000a6c <GPIO_PortCode+0x84>)
 8000a24:	4293      	cmp	r3, r2
 8000a26:	d101      	bne.n	8000a2c <GPIO_PortCode+0x44>
	{
		return 4;
 8000a28:	2304      	movs	r3, #4
 8000a2a:	e012      	b.n	8000a52 <GPIO_PortCode+0x6a>
	}
	else if (pGPIOx == GPIOF)
 8000a2c:	687b      	ldr	r3, [r7, #4]
 8000a2e:	4a10      	ldr	r2, [pc, #64]	; (8000a70 <GPIO_PortCode+0x88>)
 8000a30:	4293      	cmp	r3, r2
 8000a32:	d101      	bne.n	8000a38 <GPIO_PortCode+0x50>
	{
		return 5;
 8000a34:	2305      	movs	r3, #5
 8000a36:	e00c      	b.n	8000a52 <GPIO_PortCode+0x6a>
	}
	else if (pGPIOx == GPIOG)
 8000a38:	687b      	ldr	r3, [r7, #4]
 8000a3a:	4a0e      	ldr	r2, [pc, #56]	; (8000a74 <GPIO_PortCode+0x8c>)
 8000a3c:	4293      	cmp	r3, r2
 8000a3e:	d101      	bne.n	8000a44 <GPIO_PortCode+0x5c>
	{
		return 6;
 8000a40:	2306      	movs	r3, #6
 8000a42:	e006      	b.n	8000a52 <GPIO_PortCode+0x6a>
	}
	else if (pGPIOx == GPIOH)
 8000a44:	687b      	ldr	r3, [r7, #4]
 8000a46:	4a0c      	ldr	r2, [pc, #48]	; (8000a78 <GPIO_PortCode+0x90>)
 8000a48:	4293      	cmp	r3, r2
 8000a4a:	d101      	bne.n	8000a50 <GPIO_PortCode+0x68>
	{
		return 7;
 8000a4c:	2307      	movs	r3, #7
 8000a4e:	e000      	b.n	8000a52 <GPIO_PortCode+0x6a>
	}

	return 0;
 8000a50:	2300      	movs	r3, #0
}
 8000a52:	4618      	mov	r0, r3
 8000a54:	370c      	adds	r7, #12
 8000a56:	46bd      	mov	sp, r7
 8000a58:	bc80      	pop	{r7}
 8000a5a:	4770      	bx	lr
 8000a5c:	40020000 	.word	0x40020000
 8000a60:	40020400 	.word	0x40020400
 8000a64:	40020800 	.word	0x40020800
 8000a68:	40020c00 	.word	0x40020c00
 8000a6c:	40021000 	.word	0x40021000
 8000a70:	40021400 	.word	0x40021400
 8000a74:	40021800 	.word	0x40021800
 8000a78:	40021c00 	.word	0x40021c00

08000a7c <GPIO_PeriClockControl>:
 * Params: 		struct GPIO_RegDef_t* - GPIO register base address
 * 				uint8_t - Enable or disable value
 *
 */
void GPIO_PeriClockControl(GPIO_RegDef_t *pGPIOx, uint8_t EnOrDi)
{
 8000a7c:	b480      	push	{r7}
 8000a7e:	b083      	sub	sp, #12
 8000a80:	af00      	add	r7, sp, #0
 8000a82:	6078      	str	r0, [r7, #4]
 8000a84:	460b      	mov	r3, r1
 8000a86:	70fb      	strb	r3, [r7, #3]
	if (EnOrDi == ENABLE)
 8000a88:	78fb      	ldrb	r3, [r7, #3]
 8000a8a:	2b01      	cmp	r3, #1
 8000a8c:	d157      	bne.n	8000b3e <GPIO_PeriClockControl+0xc2>
	{
		if (pGPIOx == GPIOA)
 8000a8e:	687b      	ldr	r3, [r7, #4]
 8000a90:	4a59      	ldr	r2, [pc, #356]	; (8000bf8 <GPIO_PeriClockControl+0x17c>)
 8000a92:	4293      	cmp	r3, r2
 8000a94:	d106      	bne.n	8000aa4 <GPIO_PeriClockControl+0x28>
		{
			GPIOA_PCLK_EN();
 8000a96:	4b59      	ldr	r3, [pc, #356]	; (8000bfc <GPIO_PeriClockControl+0x180>)
 8000a98:	6b1b      	ldr	r3, [r3, #48]	; 0x30
 8000a9a:	4a58      	ldr	r2, [pc, #352]	; (8000bfc <GPIO_PeriClockControl+0x180>)
 8000a9c:	f043 0301 	orr.w	r3, r3, #1
 8000aa0:	6313      	str	r3, [r2, #48]	; 0x30
		else if (pGPIOx == GPIOH)
		{
			GPIOH_PCLK_DI();
		}
	}
}
 8000aa2:	e0a3      	b.n	8000bec <GPIO_PeriClockControl+0x170>
		else if (pGPIOx == GPIOB)
 8000aa4:	687b      	ldr	r3, [r7, #4]
 8000aa6:	4a56      	ldr	r2, [pc, #344]	; (8000c00 <GPIO_PeriClockControl+0x184>)
 8000aa8:	4293      	cmp	r3, r2
 8000aaa:	d106      	bne.n	8000aba <GPIO_PeriClockControl+0x3e>
			GPIOB_PCLK_EN();
 8000aac:	4b53      	ldr	r3, [pc, #332]	; (8000bfc <GPIO_PeriClockControl+0x180>)
 8000aae:	6b1b      	ldr	r3, [r3, #48]	; 0x30
 8000ab0:	4a52      	ldr	r2, [pc, #328]	; (8000bfc <GPIO_PeriClockControl+0x180>)
 8000ab2:	f043 0302 	orr.w	r3, r3, #2
 8000ab6:	6313      	str	r3, [r2, #48]	; 0x30
}
 8000ab8:	e098      	b.n	8000bec <GPIO_PeriClockControl+0x170>
		else if (pGPIOx == GPIOC)
 8000aba:	687b      	ldr	r3, [r7, #4]
 8000abc:	4a51      	ldr	r2, [pc, #324]	; (8000c04 <GPIO_PeriClockControl+0x188>)
 8000abe:	4293      	cmp	r3, r2
 8000ac0:	d106      	bne.n	8000ad0 <GPIO_PeriClockControl+0x54>
			GPIOC_PCLK_EN();
 8000ac2:	4b4e      	ldr	r3, [pc, #312]	; (8000bfc <GPIO_PeriClockControl+0x180>)
 8000ac4:	6b1b      	ldr	r3, [r3, #48]	; 0x30
 8000ac6:	4a4d      	ldr	r2, [pc, #308]	; (8000bfc <GPIO_PeriClockControl+0x180>)
 8000ac8:	f043 0304 	orr.w	r3, r3, #4
 8000acc:	6313      	str	r3, [r2, #48]	; 0x30
}
 8000ace:	e08d      	b.n	8000bec <GPIO_PeriClockControl+0x170>
		else if (pGPIOx == GPIOD)
 8000ad0:	687b      	ldr	r3, [r7, #4]
 8000ad2:	4a4d      	ldr	r2, [pc, #308]	; (8000c08 <GPIO_PeriClockControl+0x18c>)
 8000ad4:	4293      	cmp	r3, r2
 8000ad6:	d106      	bne.n	8000ae6 <GPIO_PeriClockControl+0x6a>
			GPIOD_PCLK_EN();
 8000ad8:	4b48      	ldr	r3, [pc, #288]	; (8000bfc <GPIO_PeriClockControl+0x180>)
 8000ada:	6b1b      	ldr	r3, [r3, #48]	; 0x30
 8000adc:	4a47      	ldr	r2, [pc, #284]	; (8000bfc <GPIO_PeriClockControl+0x180>)
 8000ade:	f043 0308 	orr.w	r3, r3, #8
 8000ae2:	6313      	str	r3, [r2, #48]	; 0x30
}
 8000ae4:	e082      	b.n	8000bec <GPIO_PeriClockControl+0x170>
		else if (pGPIOx == GPIOE)
 8000ae6:	687b      	ldr	r3, [r7, #4]
 8000ae8:	4a48      	ldr	r2, [pc, #288]	; (8000c0c <GPIO_PeriClockControl+0x190>)
 8000aea:	4293      	cmp	r3, r2
 8000aec:	d106      	bne.n	8000afc <GPIO_PeriClockControl+0x80>
			GPIOE_PCLK_EN();
 8000aee:	4b43      	ldr	r3, [pc, #268]	; (8000bfc <GPIO_PeriClockControl+0x180>)
 8000af0:	6b1b      	ldr	r3, [r3, #48]	; 0x30
 8000af2:	4a42      	ldr	r2, [pc, #264]	; (8000bfc <GPIO_PeriClockControl+0x180>)
 8000af4:	f043 0310 	orr.w	r3, r3, #16
 8000af8:	6313      	str	r3, [r2, #48]	; 0x30
}
 8000afa:	e077      	b.n	8000bec <GPIO_PeriClockControl+0x170>
		else if (pGPIOx == GPIOF)
 8000afc:	687b      	ldr	r3, [r7, #4]
 8000afe:	4a44      	ldr	r2, [pc, #272]	; (8000c10 <GPIO_PeriClockControl+0x194>)
 8000b00:	4293      	cmp	r3, r2
 8000b02:	d106      	bne.n	8000b12 <GPIO_PeriClockControl+0x96>
			GPIOF_PCLK_EN();
 8000b04:	4b3d      	ldr	r3, [pc, #244]	; (8000bfc <GPIO_PeriClockControl+0x180>)
 8000b06:	6b1b      	ldr	r3, [r3, #48]	; 0x30
 8000b08:	4a3c      	ldr	r2, [pc, #240]	; (8000bfc <GPIO_PeriClockControl+0x180>)
 8000b0a:	f043 0320 	orr.w	r3, r3, #32
 8000b0e:	6313      	str	r3, [r2, #48]	; 0x30
}
 8000b10:	e06c      	b.n	8000bec <GPIO_PeriClockControl+0x170>
		else if (pGPIOx == GPIOG)
 8000b12:	687b      	ldr	r3, [r7, #4]
 8000b14:	4a3f      	ldr	r2, [pc, #252]	; (8000c14 <GPIO_PeriClockControl+0x198>)
 8000b16:	4293      	cmp	r3, r2
 8000b18:	d106      	bne.n	8000b28 <GPIO_PeriClockControl+0xac>
			GPIOG_PCLK_EN();
 8000b1a:	4b38      	ldr	r3, [pc, #224]	; (8000bfc <GPIO_PeriClockControl+0x180>)
 8000b1c:	6b1b      	ldr	r3, [r3, #48]	; 0x30
 8000b1e:	4a37      	ldr	r2, [pc, #220]	; (8000bfc <GPIO_PeriClockControl+0x180>)
 8000b20:	f043 0340 	orr.w	r3, r3, #64	; 0x40
 8000b24:	6313      	str	r3, [r2, #48]	; 0x30
}
 8000b26:	e061      	b.n	8000bec <GPIO_PeriClockControl+0x170>
		else if (pGPIOx == GPIOH)
 8000b28:	687b      	ldr	r3, [r7, #4]
 8000b2a:	4a3b      	ldr	r2, [pc, #236]	; (8000c18 <GPIO_PeriClockControl+0x19c>)
 8000b2c:	4293      	cmp	r3, r2
 8000b2e:	d15d      	bne.n	8000bec <GPIO_PeriClockControl+0x170>
			GPIOH_PCLK_EN();
 8000b30:	4b32      	ldr	r3, [pc, #200]	; (8000bfc <GPIO_PeriClockControl+0x180>)
 8000b32:	6b1b      	ldr	r3, [r3, #48]	; 0x30
 8000b34:	4a31      	ldr	r2, [pc, #196]	; (8000bfc <GPIO_PeriClockControl+0x180>)
 8000b36:	f043 0380 	orr.w	r3, r3, #128	; 0x80
 8000b3a:	6313      	str	r3, [r2, #48]	; 0x30
}
 8000b3c:	e056      	b.n	8000bec <GPIO_PeriClockControl+0x170>
		if (pGPIOx == GPIOA)
 8000b3e:	687b      	ldr	r3, [r7, #4]
 8000b40:	4a2d      	ldr	r2, [pc, #180]	; (8000bf8 <GPIO_PeriClockControl+0x17c>)
 8000b42:	4293      	cmp	r3, r2
 8000b44:	d106      	bne.n	8000b54 <GPIO_PeriClockControl+0xd8>
			GPIOA_PCLK_DI();
 8000b46:	4b2d      	ldr	r3, [pc, #180]	; (8000bfc <GPIO_PeriClockControl+0x180>)
 8000b48:	6b1b      	ldr	r3, [r3, #48]	; 0x30
 8000b4a:	4a2c      	ldr	r2, [pc, #176]	; (8000bfc <GPIO_PeriClockControl+0x180>)
 8000b4c:	f023 0301 	bic.w	r3, r3, #1
 8000b50:	6313      	str	r3, [r2, #48]	; 0x30
}
 8000b52:	e04b      	b.n	8000bec <GPIO_PeriClockControl+0x170>
		else if (pGPIOx == GPIOB)
 8000b54:	687b      	ldr	r3, [r7, #4]
 8000b56:	4a2a      	ldr	r2, [pc, #168]	; (8000c00 <GPIO_PeriClockControl+0x184>)
 8000b58:	4293      	cmp	r3, r2
 8000b5a:	d106      	bne.n	8000b6a <GPIO_PeriClockControl+0xee>
			GPIOB_PCLK_DI();
 8000b5c:	4b27      	ldr	r3, [pc, #156]	; (8000bfc <GPIO_PeriClockControl+0x180>)
 8000b5e:	6b1b      	ldr	r3, [r3, #48]	; 0x30
 8000b60:	4a26      	ldr	r2, [pc, #152]	; (8000bfc <GPIO_PeriClockControl+0x180>)
 8000b62:	f023 0302 	bic.w	r3, r3, #2
 8000b66:	6313      	str	r3, [r2, #48]	; 0x30
}
 8000b68:	e040      	b.n	8000bec <GPIO_PeriClockControl+0x170>
		else if (pGPIOx == GPIOC)
 8000b6a:	687b      	ldr	r3, [r7, #4]
 8000b6c:	4a25      	ldr	r2, [pc, #148]	; (8000c04 <GPIO_PeriClockControl+0x188>)
 8000b6e:	4293      	cmp	r3, r2
 8000b70:	d106      	bne.n	8000b80 <GPIO_PeriClockControl+0x104>
			GPIOC_PCLK_DI();
 8000b72:	4b22      	ldr	r3, [pc, #136]	; (8000bfc <GPIO_PeriClockControl+0x180>)
 8000b74:	6b1b      	ldr	r3, [r3, #48]	; 0x30
 8000b76:	4a21      	ldr	r2, [pc, #132]	; (8000bfc <GPIO_PeriClockControl+0x180>)
 8000b78:	f023 0304 	bic.w	r3, r3, #4
 8000b7c:	6313      	str	r3, [r2, #48]	; 0x30
}
 8000b7e:	e035      	b.n	8000bec <GPIO_PeriClockControl+0x170>
		else if (pGPIOx == GPIOD)
 8000b80:	687b      	ldr	r3, [r7, #4]
 8000b82:	4a21      	ldr	r2, [pc, #132]	; (8000c08 <GPIO_PeriClockControl+0x18c>)
 8000b84:	4293      	cmp	r3, r2
 8000b86:	d106      	bne.n	8000b96 <GPIO_PeriClockControl+0x11a>
			GPIOD_PCLK_DI();
 8000b88:	4b1c      	ldr	r3, [pc, #112]	; (8000bfc <GPIO_PeriClockControl+0x180>)
 8000b8a:	6b1b      	ldr	r3, [r3, #48]	; 0x30
 8000b8c:	4a1b      	ldr	r2, [pc, #108]	; (8000bfc <GPIO_PeriClockControl+0x180>)
 8000b8e:	f023 0308 	bic.w	r3, r3, #8
 8000b92:	6313      	str	r3, [r2, #48]	; 0x30
}
 8000b94:	e02a      	b.n	8000bec <GPIO_PeriClockControl+0x170>
		else if (pGPIOx == GPIOE)
 8000b96:	687b      	ldr	r3, [r7, #4]
 8000b98:	4a1c      	ldr	r2, [pc, #112]	; (8000c0c <GPIO_PeriClockControl+0x190>)
 8000b9a:	4293      	cmp	r3, r2
 8000b9c:	d106      	bne.n	8000bac <GPIO_PeriClockControl+0x130>
			GPIOE_PCLK_DI();
 8000b9e:	4b17      	ldr	r3, [pc, #92]	; (8000bfc <GPIO_PeriClockControl+0x180>)
 8000ba0:	6b1b      	ldr	r3, [r3, #48]	; 0x30
 8000ba2:	4a16      	ldr	r2, [pc, #88]	; (8000bfc <GPIO_PeriClockControl+0x180>)
 8000ba4:	f023 0310 	bic.w	r3, r3, #16
 8000ba8:	6313      	str	r3, [r2, #48]	; 0x30
}
 8000baa:	e01f      	b.n	8000bec <GPIO_PeriClockControl+0x170>
		else if (pGPIOx == GPIOF)
 8000bac:	687b      	ldr	r3, [r7, #4]
 8000bae:	4a18      	ldr	r2, [pc, #96]	; (8000c10 <GPIO_PeriClockControl+0x194>)
 8000bb0:	4293      	cmp	r3, r2
 8000bb2:	d106      	bne.n	8000bc2 <GPIO_PeriClockControl+0x146>
			GPIOF_PCLK_DI();
 8000bb4:	4b11      	ldr	r3, [pc, #68]	; (8000bfc <GPIO_PeriClockControl+0x180>)
 8000bb6:	6b1b      	ldr	r3, [r3, #48]	; 0x30
 8000bb8:	4a10      	ldr	r2, [pc, #64]	; (8000bfc <GPIO_PeriClockControl+0x180>)
 8000bba:	f023 0320 	bic.w	r3, r3, #32
 8000bbe:	6313      	str	r3, [r2, #48]	; 0x30
}
 8000bc0:	e014      	b.n	8000bec <GPIO_PeriClockControl+0x170>
		else if (pGPIOx == GPIOG)
 8000bc2:	687b      	ldr	r3, [r7, #4]
 8000bc4:	4a13      	ldr	r2, [pc, #76]	; (8000c14 <GPIO_PeriClockControl+0x198>)
 8000bc6:	4293      	cmp	r3, r2
 8000bc8:	d106      	bne.n	8000bd8 <GPIO_PeriClockControl+0x15c>
			GPIOG_PCLK_DI();
 8000bca:	4b0c      	ldr	r3, [pc, #48]	; (8000bfc <GPIO_PeriClockControl+0x180>)
 8000bcc:	6b1b      	ldr	r3, [r3, #48]	; 0x30
 8000bce:	4a0b      	ldr	r2, [pc, #44]	; (8000bfc <GPIO_PeriClockControl+0x180>)
 8000bd0:	f023 0340 	bic.w	r3, r3, #64	; 0x40
 8000bd4:	6313      	str	r3, [r2, #48]	; 0x30
}
 8000bd6:	e009      	b.n	8000bec <GPIO_PeriClockControl+0x170>
		else if (pGPIOx == GPIOH)
 8000bd8:	687b      	ldr	r3, [r7, #4]
 8000bda:	4a0f      	ldr	r2, [pc, #60]	; (8000c18 <GPIO_PeriClockControl+0x19c>)
 8000bdc:	4293      	cmp	r3, r2
 8000bde:	d105      	bne.n	8000bec <GPIO_PeriClockControl+0x170>
			GPIOH_PCLK_DI();
 8000be0:	4b06      	ldr	r3, [pc, #24]	; (8000bfc <GPIO_PeriClockControl+0x180>)
 8000be2:	6b1b      	ldr	r3, [r3, #48]	; 0x30
 8000be4:	4a05      	ldr	r2, [pc, #20]	; (8000bfc <GPIO_PeriClockControl+0x180>)
 8000be6:	f023 0380 	bic.w	r3, r3, #128	; 0x80
 8000bea:	6313      	str	r3, [r2, #48]	; 0x30
}
 8000bec:	bf00      	nop
 8000bee:	370c      	adds	r7, #12
 8000bf0:	46bd      	mov	sp, r7
 8000bf2:	bc80      	pop	{r7}
 8000bf4:	4770      	bx	lr
 8000bf6:	bf00      	nop
 8000bf8:	40020000 	.word	0x40020000
 8000bfc:	40023800 	.word	0x40023800
 8000c00:	40020400 	.word	0x40020400
 8000c04:	40020800 	.word	0x40020800
 8000c08:	40020c00 	.word	0x40020c00
 8000c0c:	40021000 	.word	0x40021000
 8000c10:	40021400 	.word	0x40021400
 8000c14:	40021800 	.word	0x40021800
 8000c18:	40021c00 	.word	0x40021c00

08000c1c <GPIO_Init>:
 * Params:		struct GPIO_Handle_t*
 *
 *
 */
void GPIO_Init(GPIO_Handle_t *pGPIOxHandle)
{
 8000c1c:	b580      	push	{r7, lr}
 8000c1e:	b086      	sub	sp, #24
 8000c20:	af00      	add	r7, sp, #0
 8000c22:	6078      	str	r0, [r7, #4]
	// Enable clock to GPIO port
	GPIO_PeriClockControl(pGPIOxHandle->pGPIOx, ENABLE);
 8000c24:	687b      	ldr	r3, [r7, #4]
 8000c26:	681b      	ldr	r3, [r3, #0]
 8000c28:	2101      	movs	r1, #1
 8000c2a:	4618      	mov	r0, r3
 8000c2c:	f7ff ff26 	bl	8000a7c <GPIO_PeriClockControl>

	uint32_t temp = 0;
 8000c30:	2300      	movs	r3, #0
 8000c32:	617b      	str	r3, [r7, #20]

	// 1. Set GPIO pin mode
	if (pGPIOxHandle->GPIO_PinConfig.GPIO_PinMode <= GPIO_MODE_ANALOG)
 8000c34:	687b      	ldr	r3, [r7, #4]
 8000c36:	795b      	ldrb	r3, [r3, #5]
 8000c38:	2b03      	cmp	r3, #3
 8000c3a:	d822      	bhi.n	8000c82 <GPIO_Init+0x66>
	{
		temp = (pGPIOxHandle->GPIO_PinConfig.GPIO_PinMode << (2 * pGPIOxHandle->GPIO_PinConfig.GPIO_PinNumber));
 8000c3c:	687b      	ldr	r3, [r7, #4]
 8000c3e:	795b      	ldrb	r3, [r3, #5]
 8000c40:	461a      	mov	r2, r3
 8000c42:	687b      	ldr	r3, [r7, #4]
 8000c44:	791b      	ldrb	r3, [r3, #4]
 8000c46:	005b      	lsls	r3, r3, #1
 8000c48:	fa02 f303 	lsl.w	r3, r2, r3
 8000c4c:	617b      	str	r3, [r7, #20]
		pGPIOxHandle->pGPIOx->MODER &= ~((0x3) << (2 * pGPIOxHandle->GPIO_PinConfig.GPIO_PinNumber));
 8000c4e:	687b      	ldr	r3, [r7, #4]
 8000c50:	681b      	ldr	r3, [r3, #0]
 8000c52:	681a      	ldr	r2, [r3, #0]
 8000c54:	687b      	ldr	r3, [r7, #4]
 8000c56:	791b      	ldrb	r3, [r3, #4]
 8000c58:	005b      	lsls	r3, r3, #1
 8000c5a:	2103      	movs	r1, #3
 8000c5c:	fa01 f303 	lsl.w	r3, r1, r3
 8000c60:	43db      	mvns	r3, r3
 8000c62:	4619      	mov	r1, r3
 8000c64:	687b      	ldr	r3, [r7, #4]
 8000c66:	681b      	ldr	r3, [r3, #0]
 8000c68:	400a      	ands	r2, r1
 8000c6a:	601a      	str	r2, [r3, #0]
		pGPIOxHandle->pGPIOx->MODER |= temp;
 8000c6c:	687b      	ldr	r3, [r7, #4]
 8000c6e:	681b      	ldr	r3, [r3, #0]
 8000c70:	6819      	ldr	r1, [r3, #0]
 8000c72:	687b      	ldr	r3, [r7, #4]
 8000c74:	681b      	ldr	r3, [r3, #0]
 8000c76:	697a      	ldr	r2, [r7, #20]
 8000c78:	430a      	orrs	r2, r1
 8000c7a:	601a      	str	r2, [r3, #0]
		temp = 0;
 8000c7c:	2300      	movs	r3, #0
 8000c7e:	617b      	str	r3, [r7, #20]
 8000c80:	e07c      	b.n	8000d7c <GPIO_Init+0x160>
	}
	else {
		//For setting to interrupt mode...

		// Enable clock to SYSCFG (needed to set IRQ in EXTI)
		SYSCFG_PCLK_EN();
 8000c82:	4b8e      	ldr	r3, [pc, #568]	; (8000ebc <GPIO_Init+0x2a0>)
 8000c84:	6c5b      	ldr	r3, [r3, #68]	; 0x44
 8000c86:	4a8d      	ldr	r2, [pc, #564]	; (8000ebc <GPIO_Init+0x2a0>)
 8000c88:	f443 4380 	orr.w	r3, r3, #16384	; 0x4000
 8000c8c:	6453      	str	r3, [r2, #68]	; 0x44

		// 1. Set rising/falling edge trigger(s)
		if (pGPIOxHandle->GPIO_PinConfig.GPIO_PinMode == GPIO_IT_MODE_RT)
 8000c8e:	687b      	ldr	r3, [r7, #4]
 8000c90:	795b      	ldrb	r3, [r3, #5]
 8000c92:	2b04      	cmp	r3, #4
 8000c94:	d117      	bne.n	8000cc6 <GPIO_Init+0xaa>
		{
			EXTI->RTSR |= (1 << pGPIOxHandle->GPIO_PinConfig.GPIO_PinNumber);
 8000c96:	4b8a      	ldr	r3, [pc, #552]	; (8000ec0 <GPIO_Init+0x2a4>)
 8000c98:	689b      	ldr	r3, [r3, #8]
 8000c9a:	687a      	ldr	r2, [r7, #4]
 8000c9c:	7912      	ldrb	r2, [r2, #4]
 8000c9e:	4611      	mov	r1, r2
 8000ca0:	2201      	movs	r2, #1
 8000ca2:	408a      	lsls	r2, r1
 8000ca4:	4611      	mov	r1, r2
 8000ca6:	4a86      	ldr	r2, [pc, #536]	; (8000ec0 <GPIO_Init+0x2a4>)
 8000ca8:	430b      	orrs	r3, r1
 8000caa:	6093      	str	r3, [r2, #8]
			EXTI->FTSR &= ~(1 << pGPIOxHandle->GPIO_PinConfig.GPIO_PinNumber);
 8000cac:	4b84      	ldr	r3, [pc, #528]	; (8000ec0 <GPIO_Init+0x2a4>)
 8000cae:	68db      	ldr	r3, [r3, #12]
 8000cb0:	687a      	ldr	r2, [r7, #4]
 8000cb2:	7912      	ldrb	r2, [r2, #4]
 8000cb4:	4611      	mov	r1, r2
 8000cb6:	2201      	movs	r2, #1
 8000cb8:	408a      	lsls	r2, r1
 8000cba:	43d2      	mvns	r2, r2
 8000cbc:	4611      	mov	r1, r2
 8000cbe:	4a80      	ldr	r2, [pc, #512]	; (8000ec0 <GPIO_Init+0x2a4>)
 8000cc0:	400b      	ands	r3, r1
 8000cc2:	60d3      	str	r3, [r2, #12]
 8000cc4:	e035      	b.n	8000d32 <GPIO_Init+0x116>
		}
		else if (pGPIOxHandle->GPIO_PinConfig.GPIO_PinMode == GPIO_IT_MODE_FT)
 8000cc6:	687b      	ldr	r3, [r7, #4]
 8000cc8:	795b      	ldrb	r3, [r3, #5]
 8000cca:	2b05      	cmp	r3, #5
 8000ccc:	d117      	bne.n	8000cfe <GPIO_Init+0xe2>
		{
			EXTI->FTSR |= (1 << pGPIOxHandle->GPIO_PinConfig.GPIO_PinNumber);
 8000cce:	4b7c      	ldr	r3, [pc, #496]	; (8000ec0 <GPIO_Init+0x2a4>)
 8000cd0:	68db      	ldr	r3, [r3, #12]
 8000cd2:	687a      	ldr	r2, [r7, #4]
 8000cd4:	7912      	ldrb	r2, [r2, #4]
 8000cd6:	4611      	mov	r1, r2
 8000cd8:	2201      	movs	r2, #1
 8000cda:	408a      	lsls	r2, r1
 8000cdc:	4611      	mov	r1, r2
 8000cde:	4a78      	ldr	r2, [pc, #480]	; (8000ec0 <GPIO_Init+0x2a4>)
 8000ce0:	430b      	orrs	r3, r1
 8000ce2:	60d3      	str	r3, [r2, #12]
			EXTI->RTSR &= ~(1 << pGPIOxHandle->GPIO_PinConfig.GPIO_PinNumber);
 8000ce4:	4b76      	ldr	r3, [pc, #472]	; (8000ec0 <GPIO_Init+0x2a4>)
 8000ce6:	689b      	ldr	r3, [r3, #8]
 8000ce8:	687a      	ldr	r2, [r7, #4]
 8000cea:	7912      	ldrb	r2, [r2, #4]
 8000cec:	4611      	mov	r1, r2
 8000cee:	2201      	movs	r2, #1
 8000cf0:	408a      	lsls	r2, r1
 8000cf2:	43d2      	mvns	r2, r2
 8000cf4:	4611      	mov	r1, r2
 8000cf6:	4a72      	ldr	r2, [pc, #456]	; (8000ec0 <GPIO_Init+0x2a4>)
 8000cf8:	400b      	ands	r3, r1
 8000cfa:	6093      	str	r3, [r2, #8]
 8000cfc:	e019      	b.n	8000d32 <GPIO_Init+0x116>
		}
		else if (pGPIOxHandle->GPIO_PinConfig.GPIO_PinMode == GPIO_IT_MODE_RFT)
 8000cfe:	687b      	ldr	r3, [r7, #4]
 8000d00:	795b      	ldrb	r3, [r3, #5]
 8000d02:	2b06      	cmp	r3, #6
 8000d04:	d115      	bne.n	8000d32 <GPIO_Init+0x116>
		{
			EXTI->RTSR |= (1 << pGPIOxHandle->GPIO_PinConfig.GPIO_PinNumber);
 8000d06:	4b6e      	ldr	r3, [pc, #440]	; (8000ec0 <GPIO_Init+0x2a4>)
 8000d08:	689b      	ldr	r3, [r3, #8]
 8000d0a:	687a      	ldr	r2, [r7, #4]
 8000d0c:	7912      	ldrb	r2, [r2, #4]
 8000d0e:	4611      	mov	r1, r2
 8000d10:	2201      	movs	r2, #1
 8000d12:	408a      	lsls	r2, r1
 8000d14:	4611      	mov	r1, r2
 8000d16:	4a6a      	ldr	r2, [pc, #424]	; (8000ec0 <GPIO_Init+0x2a4>)
 8000d18:	430b      	orrs	r3, r1
 8000d1a:	6093      	str	r3, [r2, #8]
			EXTI->FTSR |= (1 << pGPIOxHandle->GPIO_PinConfig.GPIO_PinNumber);
 8000d1c:	4b68      	ldr	r3, [pc, #416]	; (8000ec0 <GPIO_Init+0x2a4>)
 8000d1e:	68db      	ldr	r3, [r3, #12]
 8000d20:	687a      	ldr	r2, [r7, #4]
 8000d22:	7912      	ldrb	r2, [r2, #4]
 8000d24:	4611      	mov	r1, r2
 8000d26:	2201      	movs	r2, #1
 8000d28:	408a      	lsls	r2, r1
 8000d2a:	4611      	mov	r1, r2
 8000d2c:	4a64      	ldr	r2, [pc, #400]	; (8000ec0 <GPIO_Init+0x2a4>)
 8000d2e:	430b      	orrs	r3, r1
 8000d30:	60d3      	str	r3, [r2, #12]
		}

		// 2. Configure GPIO port selection in SYSCFG
		uint8_t temp1 = pGPIOxHandle->GPIO_PinConfig.GPIO_PinNumber / 4;
 8000d32:	687b      	ldr	r3, [r7, #4]
 8000d34:	791b      	ldrb	r3, [r3, #4]
 8000d36:	089b      	lsrs	r3, r3, #2
 8000d38:	74fb      	strb	r3, [r7, #19]
		uint8_t temp2 = pGPIOxHandle->GPIO_PinConfig.GPIO_PinNumber % 4;
 8000d3a:	687b      	ldr	r3, [r7, #4]
 8000d3c:	791b      	ldrb	r3, [r3, #4]
 8000d3e:	f003 0303 	and.w	r3, r3, #3
 8000d42:	74bb      	strb	r3, [r7, #18]
		uint8_t portCode = GPIO_PortCode(pGPIOxHandle->pGPIOx);
 8000d44:	687b      	ldr	r3, [r7, #4]
 8000d46:	681b      	ldr	r3, [r3, #0]
 8000d48:	4618      	mov	r0, r3
 8000d4a:	f7ff fe4d 	bl	80009e8 <GPIO_PortCode>
 8000d4e:	4603      	mov	r3, r0
 8000d50:	747b      	strb	r3, [r7, #17]
		SYSCFG->EXTICR[temp1] = portCode << (temp2 * 4);
 8000d52:	7c7a      	ldrb	r2, [r7, #17]
 8000d54:	7cbb      	ldrb	r3, [r7, #18]
 8000d56:	009b      	lsls	r3, r3, #2
 8000d58:	fa02 f103 	lsl.w	r1, r2, r3
 8000d5c:	4a59      	ldr	r2, [pc, #356]	; (8000ec4 <GPIO_Init+0x2a8>)
 8000d5e:	7cfb      	ldrb	r3, [r7, #19]
 8000d60:	3302      	adds	r3, #2
 8000d62:	f842 1023 	str.w	r1, [r2, r3, lsl #2]

		// 3. Enable EXTI interrupt using interrupt register masking
		EXTI->IMR |= (1 << pGPIOxHandle->GPIO_PinConfig.GPIO_PinNumber);
 8000d66:	4b56      	ldr	r3, [pc, #344]	; (8000ec0 <GPIO_Init+0x2a4>)
 8000d68:	681b      	ldr	r3, [r3, #0]
 8000d6a:	687a      	ldr	r2, [r7, #4]
 8000d6c:	7912      	ldrb	r2, [r2, #4]
 8000d6e:	4611      	mov	r1, r2
 8000d70:	2201      	movs	r2, #1
 8000d72:	408a      	lsls	r2, r1
 8000d74:	4611      	mov	r1, r2
 8000d76:	4a52      	ldr	r2, [pc, #328]	; (8000ec0 <GPIO_Init+0x2a4>)
 8000d78:	430b      	orrs	r3, r1
 8000d7a:	6013      	str	r3, [r2, #0]
	}

	// 2. Set pin speed
	temp = (pGPIOxHandle->GPIO_PinConfig.GPIO_PinSpeed << (2 * pGPIOxHandle->GPIO_PinConfig.GPIO_PinNumber));
 8000d7c:	687b      	ldr	r3, [r7, #4]
 8000d7e:	799b      	ldrb	r3, [r3, #6]
 8000d80:	461a      	mov	r2, r3
 8000d82:	687b      	ldr	r3, [r7, #4]
 8000d84:	791b      	ldrb	r3, [r3, #4]
 8000d86:	005b      	lsls	r3, r3, #1
 8000d88:	fa02 f303 	lsl.w	r3, r2, r3
 8000d8c:	617b      	str	r3, [r7, #20]
	pGPIOxHandle->pGPIOx->OSPEEDR &= ~((0x3) << (2 * pGPIOxHandle->GPIO_PinConfig.GPIO_PinNumber));
 8000d8e:	687b      	ldr	r3, [r7, #4]
 8000d90:	681b      	ldr	r3, [r3, #0]
 8000d92:	689a      	ldr	r2, [r3, #8]
 8000d94:	687b      	ldr	r3, [r7, #4]
 8000d96:	791b      	ldrb	r3, [r3, #4]
 8000d98:	005b      	lsls	r3, r3, #1
 8000d9a:	2103      	movs	r1, #3
 8000d9c:	fa01 f303 	lsl.w	r3, r1, r3
 8000da0:	43db      	mvns	r3, r3
 8000da2:	4619      	mov	r1, r3
 8000da4:	687b      	ldr	r3, [r7, #4]
 8000da6:	681b      	ldr	r3, [r3, #0]
 8000da8:	400a      	ands	r2, r1
 8000daa:	609a      	str	r2, [r3, #8]
	pGPIOxHandle->pGPIOx->OSPEEDR |= temp;
 8000dac:	687b      	ldr	r3, [r7, #4]
 8000dae:	681b      	ldr	r3, [r3, #0]
 8000db0:	6899      	ldr	r1, [r3, #8]
 8000db2:	687b      	ldr	r3, [r7, #4]
 8000db4:	681b      	ldr	r3, [r3, #0]
 8000db6:	697a      	ldr	r2, [r7, #20]
 8000db8:	430a      	orrs	r2, r1
 8000dba:	609a      	str	r2, [r3, #8]
	temp = 0;
 8000dbc:	2300      	movs	r3, #0
 8000dbe:	617b      	str	r3, [r7, #20]

	// 3. Set pin pull-up or pull-down mode
	temp = (pGPIOxHandle->GPIO_PinConfig.GPIO_PuPdCtrl << (2 * pGPIOxHandle->GPIO_PinConfig.GPIO_PinNumber));
 8000dc0:	687b      	ldr	r3, [r7, #4]
 8000dc2:	79db      	ldrb	r3, [r3, #7]
 8000dc4:	461a      	mov	r2, r3
 8000dc6:	687b      	ldr	r3, [r7, #4]
 8000dc8:	791b      	ldrb	r3, [r3, #4]
 8000dca:	005b      	lsls	r3, r3, #1
 8000dcc:	fa02 f303 	lsl.w	r3, r2, r3
 8000dd0:	617b      	str	r3, [r7, #20]
	pGPIOxHandle->pGPIOx->PUPDR &= ~((0x3) << (2 * pGPIOxHandle->GPIO_PinConfig.GPIO_PinNumber));
 8000dd2:	687b      	ldr	r3, [r7, #4]
 8000dd4:	681b      	ldr	r3, [r3, #0]
 8000dd6:	68da      	ldr	r2, [r3, #12]
 8000dd8:	687b      	ldr	r3, [r7, #4]
 8000dda:	791b      	ldrb	r3, [r3, #4]
 8000ddc:	005b      	lsls	r3, r3, #1
 8000dde:	2103      	movs	r1, #3
 8000de0:	fa01 f303 	lsl.w	r3, r1, r3
 8000de4:	43db      	mvns	r3, r3
 8000de6:	4619      	mov	r1, r3
 8000de8:	687b      	ldr	r3, [r7, #4]
 8000dea:	681b      	ldr	r3, [r3, #0]
 8000dec:	400a      	ands	r2, r1
 8000dee:	60da      	str	r2, [r3, #12]
	pGPIOxHandle->pGPIOx->PUPDR |= temp;
 8000df0:	687b      	ldr	r3, [r7, #4]
 8000df2:	681b      	ldr	r3, [r3, #0]
 8000df4:	68d9      	ldr	r1, [r3, #12]
 8000df6:	687b      	ldr	r3, [r7, #4]
 8000df8:	681b      	ldr	r3, [r3, #0]
 8000dfa:	697a      	ldr	r2, [r7, #20]
 8000dfc:	430a      	orrs	r2, r1
 8000dfe:	60da      	str	r2, [r3, #12]
	temp = 0;
 8000e00:	2300      	movs	r3, #0
 8000e02:	617b      	str	r3, [r7, #20]

	// 4. Configure pin output type (push-pull or open drain)
	temp = (pGPIOxHandle->GPIO_PinConfig.GPIO_OpType << pGPIOxHandle->GPIO_PinConfig.GPIO_PinNumber);
 8000e04:	687b      	ldr	r3, [r7, #4]
 8000e06:	7a1b      	ldrb	r3, [r3, #8]
 8000e08:	461a      	mov	r2, r3
 8000e0a:	687b      	ldr	r3, [r7, #4]
 8000e0c:	791b      	ldrb	r3, [r3, #4]
 8000e0e:	fa02 f303 	lsl.w	r3, r2, r3
 8000e12:	617b      	str	r3, [r7, #20]
	pGPIOxHandle->pGPIOx->OTYPER &= ~((0x1) <<  pGPIOxHandle->GPIO_PinConfig.GPIO_PinNumber);
 8000e14:	687b      	ldr	r3, [r7, #4]
 8000e16:	681b      	ldr	r3, [r3, #0]
 8000e18:	685a      	ldr	r2, [r3, #4]
 8000e1a:	687b      	ldr	r3, [r7, #4]
 8000e1c:	791b      	ldrb	r3, [r3, #4]
 8000e1e:	4619      	mov	r1, r3
 8000e20:	2301      	movs	r3, #1
 8000e22:	408b      	lsls	r3, r1
 8000e24:	43db      	mvns	r3, r3
 8000e26:	4619      	mov	r1, r3
 8000e28:	687b      	ldr	r3, [r7, #4]
 8000e2a:	681b      	ldr	r3, [r3, #0]
 8000e2c:	400a      	ands	r2, r1
 8000e2e:	605a      	str	r2, [r3, #4]
	pGPIOxHandle->pGPIOx->OTYPER |= temp;
 8000e30:	687b      	ldr	r3, [r7, #4]
 8000e32:	681b      	ldr	r3, [r3, #0]
 8000e34:	6859      	ldr	r1, [r3, #4]
 8000e36:	687b      	ldr	r3, [r7, #4]
 8000e38:	681b      	ldr	r3, [r3, #0]
 8000e3a:	697a      	ldr	r2, [r7, #20]
 8000e3c:	430a      	orrs	r2, r1
 8000e3e:	605a      	str	r2, [r3, #4]
	temp = 0;
 8000e40:	2300      	movs	r3, #0
 8000e42:	617b      	str	r3, [r7, #20]

	// 5. Configure alternate mode function
	if (pGPIOxHandle->GPIO_PinConfig.GPIO_PinMode == GPIO_MODE_AF)
 8000e44:	687b      	ldr	r3, [r7, #4]
 8000e46:	795b      	ldrb	r3, [r3, #5]
 8000e48:	2b02      	cmp	r3, #2
 8000e4a:	d132      	bne.n	8000eb2 <GPIO_Init+0x296>
	{
		uint32_t temp1, temp2;
		temp1 = pGPIOxHandle->GPIO_PinConfig.GPIO_PinNumber / 8;
 8000e4c:	687b      	ldr	r3, [r7, #4]
 8000e4e:	791b      	ldrb	r3, [r3, #4]
 8000e50:	08db      	lsrs	r3, r3, #3
 8000e52:	b2db      	uxtb	r3, r3
 8000e54:	60fb      	str	r3, [r7, #12]
		temp2 = pGPIOxHandle->GPIO_PinConfig.GPIO_PinNumber % 8;
 8000e56:	687b      	ldr	r3, [r7, #4]
 8000e58:	791b      	ldrb	r3, [r3, #4]
 8000e5a:	f003 0307 	and.w	r3, r3, #7
 8000e5e:	60bb      	str	r3, [r7, #8]

		pGPIOxHandle->pGPIOx->AFR[temp1] &= ~((0xF) << (4 * temp2));
 8000e60:	687b      	ldr	r3, [r7, #4]
 8000e62:	681b      	ldr	r3, [r3, #0]
 8000e64:	68fa      	ldr	r2, [r7, #12]
 8000e66:	3208      	adds	r2, #8
 8000e68:	f853 2022 	ldr.w	r2, [r3, r2, lsl #2]
 8000e6c:	68bb      	ldr	r3, [r7, #8]
 8000e6e:	009b      	lsls	r3, r3, #2
 8000e70:	210f      	movs	r1, #15
 8000e72:	fa01 f303 	lsl.w	r3, r1, r3
 8000e76:	43db      	mvns	r3, r3
 8000e78:	4619      	mov	r1, r3
 8000e7a:	687b      	ldr	r3, [r7, #4]
 8000e7c:	681b      	ldr	r3, [r3, #0]
 8000e7e:	4011      	ands	r1, r2
 8000e80:	68fa      	ldr	r2, [r7, #12]
 8000e82:	3208      	adds	r2, #8
 8000e84:	f843 1022 	str.w	r1, [r3, r2, lsl #2]
		pGPIOxHandle->pGPIOx->AFR[temp1] |= (pGPIOxHandle->GPIO_PinConfig.GPIO_AfMode << (4 * temp2));
 8000e88:	687b      	ldr	r3, [r7, #4]
 8000e8a:	681b      	ldr	r3, [r3, #0]
 8000e8c:	68fa      	ldr	r2, [r7, #12]
 8000e8e:	3208      	adds	r2, #8
 8000e90:	f853 2022 	ldr.w	r2, [r3, r2, lsl #2]
 8000e94:	687b      	ldr	r3, [r7, #4]
 8000e96:	7a5b      	ldrb	r3, [r3, #9]
 8000e98:	4619      	mov	r1, r3
 8000e9a:	68bb      	ldr	r3, [r7, #8]
 8000e9c:	009b      	lsls	r3, r3, #2
 8000e9e:	fa01 f303 	lsl.w	r3, r1, r3
 8000ea2:	4619      	mov	r1, r3
 8000ea4:	687b      	ldr	r3, [r7, #4]
 8000ea6:	681b      	ldr	r3, [r3, #0]
 8000ea8:	4311      	orrs	r1, r2
 8000eaa:	68fa      	ldr	r2, [r7, #12]
 8000eac:	3208      	adds	r2, #8
 8000eae:	f843 1022 	str.w	r1, [r3, r2, lsl #2]
	}
}
 8000eb2:	bf00      	nop
 8000eb4:	3718      	adds	r7, #24
 8000eb6:	46bd      	mov	sp, r7
 8000eb8:	bd80      	pop	{r7, pc}
 8000eba:	bf00      	nop
 8000ebc:	40023800 	.word	0x40023800
 8000ec0:	40013c00 	.word	0x40013c00
 8000ec4:	40013800 	.word	0x40013800

08000ec8 <RCC_GetPPLCLK>:
 *
 * Return: 		uint32_t PPLClk - accelerated clock speed (Hz)
 *
 */
uint32_t RCC_GetPPLCLK(void)
{
 8000ec8:	b480      	push	{r7}
 8000eca:	af00      	add	r7, sp, #0
	//TODO
	return 0;
 8000ecc:	2300      	movs	r3, #0
}
 8000ece:	4618      	mov	r0, r3
 8000ed0:	46bd      	mov	sp, r7
 8000ed2:	bc80      	pop	{r7}
 8000ed4:	4770      	bx	lr
	...

08000ed8 <RCC_GetAPB1CLK>:
 *
 * Return: 		uint32_t Apb1Clk - clock speed to I2C peripherals (Hz)
 *
 */
uint32_t RCC_GetAPB1CLK(void)
{
 8000ed8:	b580      	push	{r7, lr}
 8000eda:	b084      	sub	sp, #16
 8000edc:	af00      	add	r7, sp, #0
	// 1. Get system clock source (internal, external, PLL)
	uint8_t clkSrc = ((RCC->CFGR >> 2) & 0x3);
 8000ede:	4b25      	ldr	r3, [pc, #148]	; (8000f74 <RCC_GetAPB1CLK+0x9c>)
 8000ee0:	689b      	ldr	r3, [r3, #8]
 8000ee2:	089b      	lsrs	r3, r3, #2
 8000ee4:	b2db      	uxtb	r3, r3
 8000ee6:	f003 0303 	and.w	r3, r3, #3
 8000eea:	727b      	strb	r3, [r7, #9]

	uint32_t sysClk, Apb1Clk;

	if (clkSrc == 0)
 8000eec:	7a7b      	ldrb	r3, [r7, #9]
 8000eee:	2b00      	cmp	r3, #0
 8000ef0:	d102      	bne.n	8000ef8 <RCC_GetAPB1CLK+0x20>
	{
		// Internal oscillator
		sysClk = 16000000;
 8000ef2:	4b21      	ldr	r3, [pc, #132]	; (8000f78 <RCC_GetAPB1CLK+0xa0>)
 8000ef4:	60fb      	str	r3, [r7, #12]
 8000ef6:	e00d      	b.n	8000f14 <RCC_GetAPB1CLK+0x3c>
	}
	else if (clkSrc == 1)
 8000ef8:	7a7b      	ldrb	r3, [r7, #9]
 8000efa:	2b01      	cmp	r3, #1
 8000efc:	d102      	bne.n	8000f04 <RCC_GetAPB1CLK+0x2c>
	{
		// External on-board oscillator
		sysClk = 8000000;
 8000efe:	4b1f      	ldr	r3, [pc, #124]	; (8000f7c <RCC_GetAPB1CLK+0xa4>)
 8000f00:	60fb      	str	r3, [r7, #12]
 8000f02:	e007      	b.n	8000f14 <RCC_GetAPB1CLK+0x3c>
	}
	else if (clkSrc == 2)
 8000f04:	7a7b      	ldrb	r3, [r7, #9]
 8000f06:	2b02      	cmp	r3, #2
 8000f08:	d104      	bne.n	8000f14 <RCC_GetAPB1CLK+0x3c>
	{
		Apb1Clk = RCC_GetPPLCLK();
 8000f0a:	f7ff ffdd 	bl	8000ec8 <RCC_GetPPLCLK>
 8000f0e:	6078      	str	r0, [r7, #4]
		return Apb1Clk;
 8000f10:	687b      	ldr	r3, [r7, #4]
 8000f12:	e02b      	b.n	8000f6c <RCC_GetAPB1CLK+0x94>
	}

	// 2. Get the AHB prescaler value
	uint8_t temp = (RCC->CFGR >> 4) & 0xF;
 8000f14:	4b17      	ldr	r3, [pc, #92]	; (8000f74 <RCC_GetAPB1CLK+0x9c>)
 8000f16:	689b      	ldr	r3, [r3, #8]
 8000f18:	091b      	lsrs	r3, r3, #4
 8000f1a:	b2db      	uxtb	r3, r3
 8000f1c:	f003 030f 	and.w	r3, r3, #15
 8000f20:	70fb      	strb	r3, [r7, #3]
	uint8_t ahbPre = 1, ppre1Pre = 1;
 8000f22:	2301      	movs	r3, #1
 8000f24:	72fb      	strb	r3, [r7, #11]
 8000f26:	2301      	movs	r3, #1
 8000f28:	72bb      	strb	r3, [r7, #10]

	if (temp >= 8)
 8000f2a:	78fb      	ldrb	r3, [r7, #3]
 8000f2c:	2b07      	cmp	r3, #7
 8000f2e:	d905      	bls.n	8000f3c <RCC_GetAPB1CLK+0x64>
	{
		ahbPre = AHB_Prescaler[temp - 8];
 8000f30:	78fb      	ldrb	r3, [r7, #3]
 8000f32:	3b08      	subs	r3, #8
 8000f34:	4a12      	ldr	r2, [pc, #72]	; (8000f80 <RCC_GetAPB1CLK+0xa8>)
 8000f36:	f832 3013 	ldrh.w	r3, [r2, r3, lsl #1]
 8000f3a:	72fb      	strb	r3, [r7, #11]
	}

	// 3. Get the APB1 prescaler value
	temp = (RCC->CFGR >> 10) & 0x7;
 8000f3c:	4b0d      	ldr	r3, [pc, #52]	; (8000f74 <RCC_GetAPB1CLK+0x9c>)
 8000f3e:	689b      	ldr	r3, [r3, #8]
 8000f40:	0a9b      	lsrs	r3, r3, #10
 8000f42:	b2db      	uxtb	r3, r3
 8000f44:	f003 0307 	and.w	r3, r3, #7
 8000f48:	70fb      	strb	r3, [r7, #3]
	if (temp >= 4)
 8000f4a:	78fb      	ldrb	r3, [r7, #3]
 8000f4c:	2b03      	cmp	r3, #3
 8000f4e:	d904      	bls.n	8000f5a <RCC_GetAPB1CLK+0x82>
	{
		ppre1Pre = PPRE1_Prescaler[temp - 4];
 8000f50:	78fb      	ldrb	r3, [r7, #3]
 8000f52:	3b04      	subs	r3, #4
 8000f54:	4a0b      	ldr	r2, [pc, #44]	; (8000f84 <RCC_GetAPB1CLK+0xac>)
 8000f56:	5cd3      	ldrb	r3, [r2, r3]
 8000f58:	72bb      	strb	r3, [r7, #10]
	}

	// 4. Calculate the clock speed to I2C
	Apb1Clk = (sysClk / ahbPre) / ppre1Pre;
 8000f5a:	7afb      	ldrb	r3, [r7, #11]
 8000f5c:	68fa      	ldr	r2, [r7, #12]
 8000f5e:	fbb2 f2f3 	udiv	r2, r2, r3
 8000f62:	7abb      	ldrb	r3, [r7, #10]
 8000f64:	fbb2 f3f3 	udiv	r3, r2, r3
 8000f68:	607b      	str	r3, [r7, #4]

	return Apb1Clk;
 8000f6a:	687b      	ldr	r3, [r7, #4]
}
 8000f6c:	4618      	mov	r0, r3
 8000f6e:	3710      	adds	r7, #16
 8000f70:	46bd      	mov	sp, r7
 8000f72:	bd80      	pop	{r7, pc}
 8000f74:	40023800 	.word	0x40023800
 8000f78:	00f42400 	.word	0x00f42400
 8000f7c:	007a1200 	.word	0x007a1200
 8000f80:	20000000 	.word	0x20000000
 8000f84:	20000010 	.word	0x20000010

08000f88 <RCC_GetAPB2CLK>:
 *
 * Return: 		uint32_t Apb2Clk - clock speed to APB2 (Hz)
 *
 */
uint32_t RCC_GetAPB2CLK(void)
{
 8000f88:	b580      	push	{r7, lr}
 8000f8a:	b084      	sub	sp, #16
 8000f8c:	af00      	add	r7, sp, #0
	// 1. Get system clock source (internal, external, PLL)
	uint8_t clkSrc = ((RCC->CFGR >> 2) & 0x3);
 8000f8e:	4b25      	ldr	r3, [pc, #148]	; (8001024 <RCC_GetAPB2CLK+0x9c>)
 8000f90:	689b      	ldr	r3, [r3, #8]
 8000f92:	089b      	lsrs	r3, r3, #2
 8000f94:	b2db      	uxtb	r3, r3
 8000f96:	f003 0303 	and.w	r3, r3, #3
 8000f9a:	727b      	strb	r3, [r7, #9]

	uint32_t sysClk, Apb2Clk;

	if (clkSrc == 0)
 8000f9c:	7a7b      	ldrb	r3, [r7, #9]
 8000f9e:	2b00      	cmp	r3, #0
 8000fa0:	d102      	bne.n	8000fa8 <RCC_GetAPB2CLK+0x20>
	{
		// Internal oscillator
		sysClk = 16000000;
 8000fa2:	4b21      	ldr	r3, [pc, #132]	; (8001028 <RCC_GetAPB2CLK+0xa0>)
 8000fa4:	60fb      	str	r3, [r7, #12]
 8000fa6:	e00d      	b.n	8000fc4 <RCC_GetAPB2CLK+0x3c>
	}
	else if (clkSrc == 1)
 8000fa8:	7a7b      	ldrb	r3, [r7, #9]
 8000faa:	2b01      	cmp	r3, #1
 8000fac:	d102      	bne.n	8000fb4 <RCC_GetAPB2CLK+0x2c>
	{
		// External on-board oscillator
		sysClk = 8000000;
 8000fae:	4b1f      	ldr	r3, [pc, #124]	; (800102c <RCC_GetAPB2CLK+0xa4>)
 8000fb0:	60fb      	str	r3, [r7, #12]
 8000fb2:	e007      	b.n	8000fc4 <RCC_GetAPB2CLK+0x3c>
	}
	else if (clkSrc == 2)
 8000fb4:	7a7b      	ldrb	r3, [r7, #9]
 8000fb6:	2b02      	cmp	r3, #2
 8000fb8:	d104      	bne.n	8000fc4 <RCC_GetAPB2CLK+0x3c>
	{
		Apb2Clk = RCC_GetPPLCLK();
 8000fba:	f7ff ff85 	bl	8000ec8 <RCC_GetPPLCLK>
 8000fbe:	6078      	str	r0, [r7, #4]
		return Apb2Clk;
 8000fc0:	687b      	ldr	r3, [r7, #4]
 8000fc2:	e02b      	b.n	800101c <RCC_GetAPB2CLK+0x94>
	}

	// 2. Get the AHB prescaler value
	uint8_t temp = (RCC->CFGR >> 4) & 0xF;
 8000fc4:	4b17      	ldr	r3, [pc, #92]	; (8001024 <RCC_GetAPB2CLK+0x9c>)
 8000fc6:	689b      	ldr	r3, [r3, #8]
 8000fc8:	091b      	lsrs	r3, r3, #4
 8000fca:	b2db      	uxtb	r3, r3
 8000fcc:	f003 030f 	and.w	r3, r3, #15
 8000fd0:	70fb      	strb	r3, [r7, #3]
	uint8_t ahbPre = 1, ppre2Pre = 1;
 8000fd2:	2301      	movs	r3, #1
 8000fd4:	72fb      	strb	r3, [r7, #11]
 8000fd6:	2301      	movs	r3, #1
 8000fd8:	72bb      	strb	r3, [r7, #10]

	if (temp >= 8)
 8000fda:	78fb      	ldrb	r3, [r7, #3]
 8000fdc:	2b07      	cmp	r3, #7
 8000fde:	d905      	bls.n	8000fec <RCC_GetAPB2CLK+0x64>
	{
		ahbPre = AHB_Prescaler[temp - 8];
 8000fe0:	78fb      	ldrb	r3, [r7, #3]
 8000fe2:	3b08      	subs	r3, #8
 8000fe4:	4a12      	ldr	r2, [pc, #72]	; (8001030 <RCC_GetAPB2CLK+0xa8>)
 8000fe6:	f832 3013 	ldrh.w	r3, [r2, r3, lsl #1]
 8000fea:	72fb      	strb	r3, [r7, #11]
	}

	// 3. Get the APB2 prescaler value
	temp = (RCC->CFGR >> 13) & 0x7;
 8000fec:	4b0d      	ldr	r3, [pc, #52]	; (8001024 <RCC_GetAPB2CLK+0x9c>)
 8000fee:	689b      	ldr	r3, [r3, #8]
 8000ff0:	0b5b      	lsrs	r3, r3, #13
 8000ff2:	b2db      	uxtb	r3, r3
 8000ff4:	f003 0307 	and.w	r3, r3, #7
 8000ff8:	70fb      	strb	r3, [r7, #3]
	if (temp >= 4)
 8000ffa:	78fb      	ldrb	r3, [r7, #3]
 8000ffc:	2b03      	cmp	r3, #3
 8000ffe:	d904      	bls.n	800100a <RCC_GetAPB2CLK+0x82>
	{
		ppre2Pre = PPRE2_Prescaler[temp - 4];
 8001000:	78fb      	ldrb	r3, [r7, #3]
 8001002:	3b04      	subs	r3, #4
 8001004:	4a0b      	ldr	r2, [pc, #44]	; (8001034 <RCC_GetAPB2CLK+0xac>)
 8001006:	5cd3      	ldrb	r3, [r2, r3]
 8001008:	72bb      	strb	r3, [r7, #10]
	}

	// 4. Calculate the clock speed to I2C
	Apb2Clk = (sysClk / ahbPre) / ppre2Pre;
 800100a:	7afb      	ldrb	r3, [r7, #11]
 800100c:	68fa      	ldr	r2, [r7, #12]
 800100e:	fbb2 f2f3 	udiv	r2, r2, r3
 8001012:	7abb      	ldrb	r3, [r7, #10]
 8001014:	fbb2 f3f3 	udiv	r3, r2, r3
 8001018:	607b      	str	r3, [r7, #4]

	return Apb2Clk;
 800101a:	687b      	ldr	r3, [r7, #4]
}
 800101c:	4618      	mov	r0, r3
 800101e:	3710      	adds	r7, #16
 8001020:	46bd      	mov	sp, r7
 8001022:	bd80      	pop	{r7, pc}
 8001024:	40023800 	.word	0x40023800
 8001028:	00f42400 	.word	0x00f42400
 800102c:	007a1200 	.word	0x007a1200
 8001030:	20000000 	.word	0x20000000
 8001034:	20000014 	.word	0x20000014

08001038 <USART_PeriClockControl>:
 * Params: 		struct USART_RegDef_t* *pUSARTx - USART/UART base address
 * 				uint8_t - Enable or disable value
 *
 */
void USART_PeriClockControl(USART_RegDef_t *pUSARTx, uint8_t EnOrDi)
{
 8001038:	b480      	push	{r7}
 800103a:	b083      	sub	sp, #12
 800103c:	af00      	add	r7, sp, #0
 800103e:	6078      	str	r0, [r7, #4]
 8001040:	460b      	mov	r3, r1
 8001042:	70fb      	strb	r3, [r7, #3]
	if (EnOrDi == ENABLE)
 8001044:	78fb      	ldrb	r3, [r7, #3]
 8001046:	2b01      	cmp	r3, #1
 8001048:	d141      	bne.n	80010ce <USART_PeriClockControl+0x96>
	{
		if (pUSARTx == USART1)
 800104a:	687b      	ldr	r3, [r7, #4]
 800104c:	4a43      	ldr	r2, [pc, #268]	; (800115c <USART_PeriClockControl+0x124>)
 800104e:	4293      	cmp	r3, r2
 8001050:	d106      	bne.n	8001060 <USART_PeriClockControl+0x28>
		{
			USART1_PCLK_EN();
 8001052:	4b43      	ldr	r3, [pc, #268]	; (8001160 <USART_PeriClockControl+0x128>)
 8001054:	6c5b      	ldr	r3, [r3, #68]	; 0x44
 8001056:	4a42      	ldr	r2, [pc, #264]	; (8001160 <USART_PeriClockControl+0x128>)
 8001058:	f043 0310 	orr.w	r3, r3, #16
 800105c:	6453      	str	r3, [r2, #68]	; 0x44
		else if (pUSARTx == USART6)
		{
			USART6_PCLK_DI();
		}
	}
}
 800105e:	e077      	b.n	8001150 <USART_PeriClockControl+0x118>
		else if (pUSARTx == USART2)
 8001060:	687b      	ldr	r3, [r7, #4]
 8001062:	4a40      	ldr	r2, [pc, #256]	; (8001164 <USART_PeriClockControl+0x12c>)
 8001064:	4293      	cmp	r3, r2
 8001066:	d106      	bne.n	8001076 <USART_PeriClockControl+0x3e>
			USART2_PCLK_EN();
 8001068:	4b3d      	ldr	r3, [pc, #244]	; (8001160 <USART_PeriClockControl+0x128>)
 800106a:	6c1b      	ldr	r3, [r3, #64]	; 0x40
 800106c:	4a3c      	ldr	r2, [pc, #240]	; (8001160 <USART_PeriClockControl+0x128>)
 800106e:	f443 3300 	orr.w	r3, r3, #131072	; 0x20000
 8001072:	6413      	str	r3, [r2, #64]	; 0x40
}
 8001074:	e06c      	b.n	8001150 <USART_PeriClockControl+0x118>
		else if (pUSARTx == USART3)
 8001076:	687b      	ldr	r3, [r7, #4]
 8001078:	4a3b      	ldr	r2, [pc, #236]	; (8001168 <USART_PeriClockControl+0x130>)
 800107a:	4293      	cmp	r3, r2
 800107c:	d106      	bne.n	800108c <USART_PeriClockControl+0x54>
			USART3_PCLK_EN();
 800107e:	4b38      	ldr	r3, [pc, #224]	; (8001160 <USART_PeriClockControl+0x128>)
 8001080:	6c1b      	ldr	r3, [r3, #64]	; 0x40
 8001082:	4a37      	ldr	r2, [pc, #220]	; (8001160 <USART_PeriClockControl+0x128>)
 8001084:	f443 2380 	orr.w	r3, r3, #262144	; 0x40000
 8001088:	6413      	str	r3, [r2, #64]	; 0x40
}
 800108a:	e061      	b.n	8001150 <USART_PeriClockControl+0x118>
		else if (pUSARTx == UART4)
 800108c:	687b      	ldr	r3, [r7, #4]
 800108e:	4a37      	ldr	r2, [pc, #220]	; (800116c <USART_PeriClockControl+0x134>)
 8001090:	4293      	cmp	r3, r2
 8001092:	d106      	bne.n	80010a2 <USART_PeriClockControl+0x6a>
			UART4_PCLK_EN();
 8001094:	4b32      	ldr	r3, [pc, #200]	; (8001160 <USART_PeriClockControl+0x128>)
 8001096:	6c1b      	ldr	r3, [r3, #64]	; 0x40
 8001098:	4a31      	ldr	r2, [pc, #196]	; (8001160 <USART_PeriClockControl+0x128>)
 800109a:	f443 2300 	orr.w	r3, r3, #524288	; 0x80000
 800109e:	6413      	str	r3, [r2, #64]	; 0x40
}
 80010a0:	e056      	b.n	8001150 <USART_PeriClockControl+0x118>
		else if (pUSARTx == UART5)
 80010a2:	687b      	ldr	r3, [r7, #4]
 80010a4:	4a32      	ldr	r2, [pc, #200]	; (8001170 <USART_PeriClockControl+0x138>)
 80010a6:	4293      	cmp	r3, r2
 80010a8:	d106      	bne.n	80010b8 <USART_PeriClockControl+0x80>
			UART5_PCLK_EN();
 80010aa:	4b2d      	ldr	r3, [pc, #180]	; (8001160 <USART_PeriClockControl+0x128>)
 80010ac:	6c1b      	ldr	r3, [r3, #64]	; 0x40
 80010ae:	4a2c      	ldr	r2, [pc, #176]	; (8001160 <USART_PeriClockControl+0x128>)
 80010b0:	f443 1380 	orr.w	r3, r3, #1048576	; 0x100000
 80010b4:	6413      	str	r3, [r2, #64]	; 0x40
}
 80010b6:	e04b      	b.n	8001150 <USART_PeriClockControl+0x118>
		else if (pUSARTx == USART6)
 80010b8:	687b      	ldr	r3, [r7, #4]
 80010ba:	4a2e      	ldr	r2, [pc, #184]	; (8001174 <USART_PeriClockControl+0x13c>)
 80010bc:	4293      	cmp	r3, r2
 80010be:	d147      	bne.n	8001150 <USART_PeriClockControl+0x118>
			USART6_PCLK_EN();
 80010c0:	4b27      	ldr	r3, [pc, #156]	; (8001160 <USART_PeriClockControl+0x128>)
 80010c2:	6c5b      	ldr	r3, [r3, #68]	; 0x44
 80010c4:	4a26      	ldr	r2, [pc, #152]	; (8001160 <USART_PeriClockControl+0x128>)
 80010c6:	f043 0320 	orr.w	r3, r3, #32
 80010ca:	6453      	str	r3, [r2, #68]	; 0x44
}
 80010cc:	e040      	b.n	8001150 <USART_PeriClockControl+0x118>
		if (pUSARTx == USART1)
 80010ce:	687b      	ldr	r3, [r7, #4]
 80010d0:	4a22      	ldr	r2, [pc, #136]	; (800115c <USART_PeriClockControl+0x124>)
 80010d2:	4293      	cmp	r3, r2
 80010d4:	d106      	bne.n	80010e4 <USART_PeriClockControl+0xac>
			USART1_PCLK_DI();
 80010d6:	4b22      	ldr	r3, [pc, #136]	; (8001160 <USART_PeriClockControl+0x128>)
 80010d8:	6c5b      	ldr	r3, [r3, #68]	; 0x44
 80010da:	4a21      	ldr	r2, [pc, #132]	; (8001160 <USART_PeriClockControl+0x128>)
 80010dc:	f023 0310 	bic.w	r3, r3, #16
 80010e0:	6453      	str	r3, [r2, #68]	; 0x44
}
 80010e2:	e035      	b.n	8001150 <USART_PeriClockControl+0x118>
		else if (pUSARTx == USART2)
 80010e4:	687b      	ldr	r3, [r7, #4]
 80010e6:	4a1f      	ldr	r2, [pc, #124]	; (8001164 <USART_PeriClockControl+0x12c>)
 80010e8:	4293      	cmp	r3, r2
 80010ea:	d106      	bne.n	80010fa <USART_PeriClockControl+0xc2>
			USART2_PCLK_DI();
 80010ec:	4b1c      	ldr	r3, [pc, #112]	; (8001160 <USART_PeriClockControl+0x128>)
 80010ee:	6c1b      	ldr	r3, [r3, #64]	; 0x40
 80010f0:	4a1b      	ldr	r2, [pc, #108]	; (8001160 <USART_PeriClockControl+0x128>)
 80010f2:	f423 3300 	bic.w	r3, r3, #131072	; 0x20000
 80010f6:	6413      	str	r3, [r2, #64]	; 0x40
}
 80010f8:	e02a      	b.n	8001150 <USART_PeriClockControl+0x118>
		else if (pUSARTx == USART3)
 80010fa:	687b      	ldr	r3, [r7, #4]
 80010fc:	4a1a      	ldr	r2, [pc, #104]	; (8001168 <USART_PeriClockControl+0x130>)
 80010fe:	4293      	cmp	r3, r2
 8001100:	d106      	bne.n	8001110 <USART_PeriClockControl+0xd8>
			USART3_PCLK_DI();
 8001102:	4b17      	ldr	r3, [pc, #92]	; (8001160 <USART_PeriClockControl+0x128>)
 8001104:	6c1b      	ldr	r3, [r3, #64]	; 0x40
 8001106:	4a16      	ldr	r2, [pc, #88]	; (8001160 <USART_PeriClockControl+0x128>)
 8001108:	f423 2380 	bic.w	r3, r3, #262144	; 0x40000
 800110c:	6413      	str	r3, [r2, #64]	; 0x40
}
 800110e:	e01f      	b.n	8001150 <USART_PeriClockControl+0x118>
		else if (pUSARTx == UART4)
 8001110:	687b      	ldr	r3, [r7, #4]
 8001112:	4a16      	ldr	r2, [pc, #88]	; (800116c <USART_PeriClockControl+0x134>)
 8001114:	4293      	cmp	r3, r2
 8001116:	d106      	bne.n	8001126 <USART_PeriClockControl+0xee>
			UART4_PCLK_DI();
 8001118:	4b11      	ldr	r3, [pc, #68]	; (8001160 <USART_PeriClockControl+0x128>)
 800111a:	6c1b      	ldr	r3, [r3, #64]	; 0x40
 800111c:	4a10      	ldr	r2, [pc, #64]	; (8001160 <USART_PeriClockControl+0x128>)
 800111e:	f423 2300 	bic.w	r3, r3, #524288	; 0x80000
 8001122:	6413      	str	r3, [r2, #64]	; 0x40
}
 8001124:	e014      	b.n	8001150 <USART_PeriClockControl+0x118>
		else if (pUSARTx == UART5)
 8001126:	687b      	ldr	r3, [r7, #4]
 8001128:	4a11      	ldr	r2, [pc, #68]	; (8001170 <USART_PeriClockControl+0x138>)
 800112a:	4293      	cmp	r3, r2
 800112c:	d106      	bne.n	800113c <USART_PeriClockControl+0x104>
			UART5_PCLK_DI();
 800112e:	4b0c      	ldr	r3, [pc, #48]	; (8001160 <USART_PeriClockControl+0x128>)
 8001130:	6c1b      	ldr	r3, [r3, #64]	; 0x40
 8001132:	4a0b      	ldr	r2, [pc, #44]	; (8001160 <USART_PeriClockControl+0x128>)
 8001134:	f423 1380 	bic.w	r3, r3, #1048576	; 0x100000
 8001138:	6413      	str	r3, [r2, #64]	; 0x40
}
 800113a:	e009      	b.n	8001150 <USART_PeriClockControl+0x118>
		else if (pUSARTx == USART6)
 800113c:	687b      	ldr	r3, [r7, #4]
 800113e:	4a0d      	ldr	r2, [pc, #52]	; (8001174 <USART_PeriClockControl+0x13c>)
 8001140:	4293      	cmp	r3, r2
 8001142:	d105      	bne.n	8001150 <USART_PeriClockControl+0x118>
			USART6_PCLK_DI();
 8001144:	4b06      	ldr	r3, [pc, #24]	; (8001160 <USART_PeriClockControl+0x128>)
 8001146:	6c5b      	ldr	r3, [r3, #68]	; 0x44
 8001148:	4a05      	ldr	r2, [pc, #20]	; (8001160 <USART_PeriClockControl+0x128>)
 800114a:	f023 0320 	bic.w	r3, r3, #32
 800114e:	6453      	str	r3, [r2, #68]	; 0x44
}
 8001150:	bf00      	nop
 8001152:	370c      	adds	r7, #12
 8001154:	46bd      	mov	sp, r7
 8001156:	bc80      	pop	{r7}
 8001158:	4770      	bx	lr
 800115a:	bf00      	nop
 800115c:	40011000 	.word	0x40011000
 8001160:	40023800 	.word	0x40023800
 8001164:	40004400 	.word	0x40004400
 8001168:	40004800 	.word	0x40004800
 800116c:	40004c00 	.word	0x40004c00
 8001170:	40005000 	.word	0x40005000
 8001174:	40011400 	.word	0x40011400

08001178 <USART_PeripheralControl>:
 * Params: 		struct USART_RegDef_t *pUSARTx - USART/UART base address
 * 				uint8_t EnOrDi - Enable or disable communication (0 or 1)
 *
 */
void USART_PeripheralControl(USART_RegDef_t *pUSARTx, uint8_t EnOrDi)
{
 8001178:	b480      	push	{r7}
 800117a:	b083      	sub	sp, #12
 800117c:	af00      	add	r7, sp, #0
 800117e:	6078      	str	r0, [r7, #4]
 8001180:	460b      	mov	r3, r1
 8001182:	70fb      	strb	r3, [r7, #3]
	if (EnOrDi == ENABLE)
 8001184:	78fb      	ldrb	r3, [r7, #3]
 8001186:	2b01      	cmp	r3, #1
 8001188:	d106      	bne.n	8001198 <USART_PeripheralControl+0x20>
	{
		pUSARTx->CR1 |= (1 << 13);
 800118a:	687b      	ldr	r3, [r7, #4]
 800118c:	68db      	ldr	r3, [r3, #12]
 800118e:	f443 5200 	orr.w	r2, r3, #8192	; 0x2000
 8001192:	687b      	ldr	r3, [r7, #4]
 8001194:	60da      	str	r2, [r3, #12]
	}
	else
	{
		pUSARTx->CR1 |= ~(1 << 13);
	}
}
 8001196:	e005      	b.n	80011a4 <USART_PeripheralControl+0x2c>
		pUSARTx->CR1 |= ~(1 << 13);
 8001198:	687b      	ldr	r3, [r7, #4]
 800119a:	68db      	ldr	r3, [r3, #12]
 800119c:	f463 5200 	orn	r2, r3, #8192	; 0x2000
 80011a0:	687b      	ldr	r3, [r7, #4]
 80011a2:	60da      	str	r2, [r3, #12]
}
 80011a4:	bf00      	nop
 80011a6:	370c      	adds	r7, #12
 80011a8:	46bd      	mov	sp, r7
 80011aa:	bc80      	pop	{r7}
 80011ac:	4770      	bx	lr

080011ae <USART_GetFlagStatus>:
 * Params: 		struct USART_RegDef_t *pUSARTx - USART base address
 * 				uint8_t USART_FLAG - flag being checked
 *
 */
uint8_t USART_GetFlagStatus(USART_RegDef_t *pUSARTx, uint8_t USART_FLAG)
{
 80011ae:	b480      	push	{r7}
 80011b0:	b083      	sub	sp, #12
 80011b2:	af00      	add	r7, sp, #0
 80011b4:	6078      	str	r0, [r7, #4]
 80011b6:	460b      	mov	r3, r1
 80011b8:	70fb      	strb	r3, [r7, #3]
	return (pUSARTx->SR & USART_FLAG);
 80011ba:	687b      	ldr	r3, [r7, #4]
 80011bc:	681b      	ldr	r3, [r3, #0]
 80011be:	b2da      	uxtb	r2, r3
 80011c0:	78fb      	ldrb	r3, [r7, #3]
 80011c2:	4013      	ands	r3, r2
 80011c4:	b2db      	uxtb	r3, r3
}
 80011c6:	4618      	mov	r0, r3
 80011c8:	370c      	adds	r7, #12
 80011ca:	46bd      	mov	sp, r7
 80011cc:	bc80      	pop	{r7}
 80011ce:	4770      	bx	lr

080011d0 <USART_ClearFlag>:
 * Params: 		struct USART_RegDef_t *pUSARTx - USART base address
 * 				uint8_t USART_FLAG - flag being cleared
 *
 */
void USART_ClearFlag(USART_RegDef_t *pUSARTx, uint8_t USART_FLAG)
{
 80011d0:	b580      	push	{r7, lr}
 80011d2:	b084      	sub	sp, #16
 80011d4:	af00      	add	r7, sp, #0
 80011d6:	6078      	str	r0, [r7, #4]
 80011d8:	460b      	mov	r3, r1
 80011da:	70fb      	strb	r3, [r7, #3]
	int dummyRead, dummyWrite = 0xFF;
 80011dc:	23ff      	movs	r3, #255	; 0xff
 80011de:	60fb      	str	r3, [r7, #12]

	if (USART_FLAG == USART_FLAG_PE)
 80011e0:	78fb      	ldrb	r3, [r7, #3]
 80011e2:	2b01      	cmp	r3, #1
 80011e4:	d111      	bne.n	800120a <USART_ClearFlag+0x3a>
	{
		// Clear PE by waiting for RXNE, reading from SR, writing to DR
		while (!USART_GetFlagStatus(pUSARTx, USART_FLAG_RXNE));
 80011e6:	bf00      	nop
 80011e8:	2120      	movs	r1, #32
 80011ea:	6878      	ldr	r0, [r7, #4]
 80011ec:	f7ff ffdf 	bl	80011ae <USART_GetFlagStatus>
 80011f0:	4603      	mov	r3, r0
 80011f2:	2b00      	cmp	r3, #0
 80011f4:	d0f8      	beq.n	80011e8 <USART_ClearFlag+0x18>
		dummyRead = pUSARTx->SR;
 80011f6:	687b      	ldr	r3, [r7, #4]
 80011f8:	681b      	ldr	r3, [r3, #0]
 80011fa:	60bb      	str	r3, [r7, #8]
		pUSARTx->DR |= dummyWrite;
 80011fc:	687b      	ldr	r3, [r7, #4]
 80011fe:	685a      	ldr	r2, [r3, #4]
 8001200:	68fb      	ldr	r3, [r7, #12]
 8001202:	431a      	orrs	r2, r3
 8001204:	687b      	ldr	r3, [r7, #4]
 8001206:	605a      	str	r2, [r3, #4]
		// Clear CTS by writing to 0
		pUSARTx->SR &= ~(1 << 9);
	}

	(void)dummyRead;
}
 8001208:	e044      	b.n	8001294 <USART_ClearFlag+0xc4>
	else if (USART_FLAG == USART_FLAG_FE)
 800120a:	78fb      	ldrb	r3, [r7, #3]
 800120c:	2b02      	cmp	r3, #2
 800120e:	d106      	bne.n	800121e <USART_ClearFlag+0x4e>
		dummyRead = pUSARTx->SR;
 8001210:	687b      	ldr	r3, [r7, #4]
 8001212:	681b      	ldr	r3, [r3, #0]
 8001214:	60bb      	str	r3, [r7, #8]
		dummyRead = pUSARTx->DR;
 8001216:	687b      	ldr	r3, [r7, #4]
 8001218:	685b      	ldr	r3, [r3, #4]
 800121a:	60bb      	str	r3, [r7, #8]
}
 800121c:	e03a      	b.n	8001294 <USART_ClearFlag+0xc4>
	else if (USART_FLAG == USART_FLAG_NF)
 800121e:	78fb      	ldrb	r3, [r7, #3]
 8001220:	2b04      	cmp	r3, #4
 8001222:	d106      	bne.n	8001232 <USART_ClearFlag+0x62>
		dummyRead = pUSARTx->SR;
 8001224:	687b      	ldr	r3, [r7, #4]
 8001226:	681b      	ldr	r3, [r3, #0]
 8001228:	60bb      	str	r3, [r7, #8]
		dummyRead = pUSARTx->DR;
 800122a:	687b      	ldr	r3, [r7, #4]
 800122c:	685b      	ldr	r3, [r3, #4]
 800122e:	60bb      	str	r3, [r7, #8]
}
 8001230:	e030      	b.n	8001294 <USART_ClearFlag+0xc4>
	else if (USART_FLAG == USART_FLAG_ORE)
 8001232:	78fb      	ldrb	r3, [r7, #3]
 8001234:	2b08      	cmp	r3, #8
 8001236:	d106      	bne.n	8001246 <USART_ClearFlag+0x76>
		dummyRead = pUSARTx->SR;
 8001238:	687b      	ldr	r3, [r7, #4]
 800123a:	681b      	ldr	r3, [r3, #0]
 800123c:	60bb      	str	r3, [r7, #8]
		dummyRead = pUSARTx->DR;
 800123e:	687b      	ldr	r3, [r7, #4]
 8001240:	685b      	ldr	r3, [r3, #4]
 8001242:	60bb      	str	r3, [r7, #8]
}
 8001244:	e026      	b.n	8001294 <USART_ClearFlag+0xc4>
	else if (USART_FLAG == USART_FLAG_IDLE)
 8001246:	78fb      	ldrb	r3, [r7, #3]
 8001248:	2b10      	cmp	r3, #16
 800124a:	d106      	bne.n	800125a <USART_ClearFlag+0x8a>
		dummyRead = pUSARTx->SR;
 800124c:	687b      	ldr	r3, [r7, #4]
 800124e:	681b      	ldr	r3, [r3, #0]
 8001250:	60bb      	str	r3, [r7, #8]
		dummyRead = pUSARTx->DR;
 8001252:	687b      	ldr	r3, [r7, #4]
 8001254:	685b      	ldr	r3, [r3, #4]
 8001256:	60bb      	str	r3, [r7, #8]
}
 8001258:	e01c      	b.n	8001294 <USART_ClearFlag+0xc4>
	else if (USART_FLAG == USART_FLAG_RXNE)
 800125a:	78fb      	ldrb	r3, [r7, #3]
 800125c:	2b20      	cmp	r3, #32
 800125e:	d103      	bne.n	8001268 <USART_ClearFlag+0x98>
		dummyRead = pUSARTx->DR;
 8001260:	687b      	ldr	r3, [r7, #4]
 8001262:	685b      	ldr	r3, [r3, #4]
 8001264:	60bb      	str	r3, [r7, #8]
}
 8001266:	e015      	b.n	8001294 <USART_ClearFlag+0xc4>
	else if (USART_FLAG == USART_FLAG_TC)
 8001268:	78fb      	ldrb	r3, [r7, #3]
 800126a:	2b40      	cmp	r3, #64	; 0x40
 800126c:	d109      	bne.n	8001282 <USART_ClearFlag+0xb2>
		dummyRead = pUSARTx->SR;
 800126e:	687b      	ldr	r3, [r7, #4]
 8001270:	681b      	ldr	r3, [r3, #0]
 8001272:	60bb      	str	r3, [r7, #8]
		pUSARTx->DR |= dummyWrite;
 8001274:	687b      	ldr	r3, [r7, #4]
 8001276:	685a      	ldr	r2, [r3, #4]
 8001278:	68fb      	ldr	r3, [r7, #12]
 800127a:	431a      	orrs	r2, r3
 800127c:	687b      	ldr	r3, [r7, #4]
 800127e:	605a      	str	r2, [r3, #4]
}
 8001280:	e008      	b.n	8001294 <USART_ClearFlag+0xc4>
	else if (USART_FLAG == USART_FLAG_TXE)
 8001282:	78fb      	ldrb	r3, [r7, #3]
 8001284:	2b80      	cmp	r3, #128	; 0x80
 8001286:	d105      	bne.n	8001294 <USART_ClearFlag+0xc4>
		pUSARTx->DR |= dummyWrite;
 8001288:	687b      	ldr	r3, [r7, #4]
 800128a:	685a      	ldr	r2, [r3, #4]
 800128c:	68fb      	ldr	r3, [r7, #12]
 800128e:	431a      	orrs	r2, r3
 8001290:	687b      	ldr	r3, [r7, #4]
 8001292:	605a      	str	r2, [r3, #4]
}
 8001294:	bf00      	nop
 8001296:	3710      	adds	r7, #16
 8001298:	46bd      	mov	sp, r7
 800129a:	bd80      	pop	{r7, pc}

0800129c <USART_SetBaudRate>:
 * Params: 		struct USART_RegDef_t *pUSARTx - USART base address
 * 				uint16_t USART_BaudRate - Baud rate to be set (bps)
 *
 */
void USART_SetBaudRate(USART_RegDef_t *pUSARTx, uint32_t USART_BaudRate)
{
 800129c:	b590      	push	{r4, r7, lr}
 800129e:	b087      	sub	sp, #28
 80012a0:	af00      	add	r7, sp, #0
 80012a2:	6078      	str	r0, [r7, #4]
 80012a4:	6039      	str	r1, [r7, #0]
	uint32_t ApbClk;

	// 1. Get the peripheral clock to USART/UART
	if (pUSARTx == USART1 || pUSARTx == USART6)
 80012a6:	687b      	ldr	r3, [r7, #4]
 80012a8:	4a49      	ldr	r2, [pc, #292]	; (80013d0 <USART_SetBaudRate+0x134>)
 80012aa:	4293      	cmp	r3, r2
 80012ac:	d003      	beq.n	80012b6 <USART_SetBaudRate+0x1a>
 80012ae:	687b      	ldr	r3, [r7, #4]
 80012b0:	4a48      	ldr	r2, [pc, #288]	; (80013d4 <USART_SetBaudRate+0x138>)
 80012b2:	4293      	cmp	r3, r2
 80012b4:	d103      	bne.n	80012be <USART_SetBaudRate+0x22>
	{
		ApbClk = RCC_GetAPB2CLK();
 80012b6:	f7ff fe67 	bl	8000f88 <RCC_GetAPB2CLK>
 80012ba:	6178      	str	r0, [r7, #20]
 80012bc:	e002      	b.n	80012c4 <USART_SetBaudRate+0x28>
	}
	else
	{
		ApbClk = RCC_GetAPB1CLK();
 80012be:	f7ff fe0b 	bl	8000ed8 <RCC_GetAPB1CLK>
 80012c2:	6178      	str	r0, [r7, #20]
	}

	// 2. Calculate USARTDIV
	uint8_t over8 = (pUSARTx->CR1 & (1 << 15)) ? 1 : 0;
 80012c4:	687b      	ldr	r3, [r7, #4]
 80012c6:	68db      	ldr	r3, [r3, #12]
 80012c8:	f403 4300 	and.w	r3, r3, #32768	; 0x8000
 80012cc:	2b00      	cmp	r3, #0
 80012ce:	bf14      	ite	ne
 80012d0:	2301      	movne	r3, #1
 80012d2:	2300      	moveq	r3, #0
 80012d4:	b2db      	uxtb	r3, r3
 80012d6:	73fb      	strb	r3, [r7, #15]
	float usartDiv = (ApbClk  * 100) / ((8 * (2 - over8)) * USART_BaudRate);   // Multiply hundred to get 2 decimal places
 80012d8:	697b      	ldr	r3, [r7, #20]
 80012da:	2264      	movs	r2, #100	; 0x64
 80012dc:	fb02 f203 	mul.w	r2, r2, r3
 80012e0:	7bfb      	ldrb	r3, [r7, #15]
 80012e2:	f1c3 0302 	rsb	r3, r3, #2
 80012e6:	4619      	mov	r1, r3
 80012e8:	683b      	ldr	r3, [r7, #0]
 80012ea:	fb03 f301 	mul.w	r3, r3, r1
 80012ee:	00db      	lsls	r3, r3, #3
 80012f0:	fbb2 f3f3 	udiv	r3, r2, r3
 80012f4:	4618      	mov	r0, r3
 80012f6:	f7ff f899 	bl	800042c <__aeabi_ui2f>
 80012fa:	4603      	mov	r3, r0
 80012fc:	60bb      	str	r3, [r7, #8]

	// 3. Calculate mantissa and fraction (See USART 25.4.4 in datasheet for formulas)
	uint16_t mantissa = usartDiv / 100;
 80012fe:	4936      	ldr	r1, [pc, #216]	; (80013d8 <USART_SetBaudRate+0x13c>)
 8001300:	68b8      	ldr	r0, [r7, #8]
 8001302:	f7ff f99f 	bl	8000644 <__aeabi_fdiv>
 8001306:	4603      	mov	r3, r0
 8001308:	4618      	mov	r0, r3
 800130a:	f7ff fa37 	bl	800077c <__aeabi_f2uiz>
 800130e:	4603      	mov	r3, r0
 8001310:	827b      	strh	r3, [r7, #18]
	uint16_t fraction = (usartDiv - mantissa * 100) * (8 * (2 - over8));
 8001312:	8a7b      	ldrh	r3, [r7, #18]
 8001314:	2264      	movs	r2, #100	; 0x64
 8001316:	fb02 f303 	mul.w	r3, r2, r3
 800131a:	4618      	mov	r0, r3
 800131c:	f7ff f88a 	bl	8000434 <__aeabi_i2f>
 8001320:	4603      	mov	r3, r0
 8001322:	4619      	mov	r1, r3
 8001324:	68b8      	ldr	r0, [r7, #8]
 8001326:	f7fe ffcf 	bl	80002c8 <__aeabi_fsub>
 800132a:	4603      	mov	r3, r0
 800132c:	461c      	mov	r4, r3
 800132e:	7bfb      	ldrb	r3, [r7, #15]
 8001330:	f1c3 0302 	rsb	r3, r3, #2
 8001334:	00db      	lsls	r3, r3, #3
 8001336:	4618      	mov	r0, r3
 8001338:	f7ff f87c 	bl	8000434 <__aeabi_i2f>
 800133c:	4603      	mov	r3, r0
 800133e:	4619      	mov	r1, r3
 8001340:	4620      	mov	r0, r4
 8001342:	f7ff f8cb 	bl	80004dc <__aeabi_fmul>
 8001346:	4603      	mov	r3, r0
 8001348:	4618      	mov	r0, r3
 800134a:	f7ff fa17 	bl	800077c <__aeabi_f2uiz>
 800134e:	4603      	mov	r3, r0
 8001350:	823b      	strh	r3, [r7, #16]

	// Round fraction
	fraction = (fraction + 50) / 100;
 8001352:	8a3b      	ldrh	r3, [r7, #16]
 8001354:	3332      	adds	r3, #50	; 0x32
 8001356:	4a21      	ldr	r2, [pc, #132]	; (80013dc <USART_SetBaudRate+0x140>)
 8001358:	fb82 1203 	smull	r1, r2, r2, r3
 800135c:	1152      	asrs	r2, r2, #5
 800135e:	17db      	asrs	r3, r3, #31
 8001360:	1ad3      	subs	r3, r2, r3
 8001362:	823b      	strh	r3, [r7, #16]

	// 4. Carry over
	if (over8)
 8001364:	7bfb      	ldrb	r3, [r7, #15]
 8001366:	2b00      	cmp	r3, #0
 8001368:	d017      	beq.n	800139a <USART_SetBaudRate+0xfe>
	{
		// Fraction register is 3 bits
		if (fraction > 7)
 800136a:	8a3b      	ldrh	r3, [r7, #16]
 800136c:	2b07      	cmp	r3, #7
 800136e:	d904      	bls.n	800137a <USART_SetBaudRate+0xde>
		{
			mantissa++;
 8001370:	8a7b      	ldrh	r3, [r7, #18]
 8001372:	3301      	adds	r3, #1
 8001374:	827b      	strh	r3, [r7, #18]
			fraction = 0;
 8001376:	2300      	movs	r3, #0
 8001378:	823b      	strh	r3, [r7, #16]
		}

		pUSARTx->BRR |= (mantissa << 4);
 800137a:	687b      	ldr	r3, [r7, #4]
 800137c:	689b      	ldr	r3, [r3, #8]
 800137e:	8a7a      	ldrh	r2, [r7, #18]
 8001380:	0112      	lsls	r2, r2, #4
 8001382:	431a      	orrs	r2, r3
 8001384:	687b      	ldr	r3, [r7, #4]
 8001386:	609a      	str	r2, [r3, #8]
		pUSARTx->BRR |= ((fraction & 0x07) << 0);
 8001388:	687b      	ldr	r3, [r7, #4]
 800138a:	689a      	ldr	r2, [r3, #8]
 800138c:	8a3b      	ldrh	r3, [r7, #16]
 800138e:	f003 0307 	and.w	r3, r3, #7
 8001392:	431a      	orrs	r2, r3
 8001394:	687b      	ldr	r3, [r7, #4]
 8001396:	609a      	str	r2, [r3, #8]
		}

		pUSARTx->BRR |= (mantissa << 4);
		pUSARTx->BRR |= ((fraction & 0x0F) << 0);
	}
}
 8001398:	e016      	b.n	80013c8 <USART_SetBaudRate+0x12c>
		if (fraction > 15)
 800139a:	8a3b      	ldrh	r3, [r7, #16]
 800139c:	2b0f      	cmp	r3, #15
 800139e:	d904      	bls.n	80013aa <USART_SetBaudRate+0x10e>
			mantissa++;
 80013a0:	8a7b      	ldrh	r3, [r7, #18]
 80013a2:	3301      	adds	r3, #1
 80013a4:	827b      	strh	r3, [r7, #18]
			fraction = 0;
 80013a6:	2300      	movs	r3, #0
 80013a8:	823b      	strh	r3, [r7, #16]
		pUSARTx->BRR |= (mantissa << 4);
 80013aa:	687b      	ldr	r3, [r7, #4]
 80013ac:	689b      	ldr	r3, [r3, #8]
 80013ae:	8a7a      	ldrh	r2, [r7, #18]
 80013b0:	0112      	lsls	r2, r2, #4
 80013b2:	431a      	orrs	r2, r3
 80013b4:	687b      	ldr	r3, [r7, #4]
 80013b6:	609a      	str	r2, [r3, #8]
		pUSARTx->BRR |= ((fraction & 0x0F) << 0);
 80013b8:	687b      	ldr	r3, [r7, #4]
 80013ba:	689a      	ldr	r2, [r3, #8]
 80013bc:	8a3b      	ldrh	r3, [r7, #16]
 80013be:	f003 030f 	and.w	r3, r3, #15
 80013c2:	431a      	orrs	r2, r3
 80013c4:	687b      	ldr	r3, [r7, #4]
 80013c6:	609a      	str	r2, [r3, #8]
}
 80013c8:	bf00      	nop
 80013ca:	371c      	adds	r7, #28
 80013cc:	46bd      	mov	sp, r7
 80013ce:	bd90      	pop	{r4, r7, pc}
 80013d0:	40011000 	.word	0x40011000
 80013d4:	40011400 	.word	0x40011400
 80013d8:	42c80000 	.word	0x42c80000
 80013dc:	51eb851f 	.word	0x51eb851f

080013e0 <USART_Init>:
 *
 * Params: 		struct USART_Handle_t *pUSARTxHandle - USART peripheral handle
 *
 */
void USART_Init(USART_Handle_t *pUSARTxHandle)
{
 80013e0:	b580      	push	{r7, lr}
 80013e2:	b082      	sub	sp, #8
 80013e4:	af00      	add	r7, sp, #0
 80013e6:	6078      	str	r0, [r7, #4]
	// 1. Give clock signal to USART/UART bus
	USART_PeriClockControl(pUSARTxHandle->pUSARTx, ENABLE);
 80013e8:	687b      	ldr	r3, [r7, #4]
 80013ea:	681b      	ldr	r3, [r3, #0]
 80013ec:	2101      	movs	r1, #1
 80013ee:	4618      	mov	r0, r3
 80013f0:	f7ff fe22 	bl	8001038 <USART_PeriClockControl>

	// 2. Enable USART/UART peripheral
	USART_PeripheralControl(pUSARTxHandle->pUSARTx, ENABLE);
 80013f4:	687b      	ldr	r3, [r7, #4]
 80013f6:	681b      	ldr	r3, [r3, #0]
 80013f8:	2101      	movs	r1, #1
 80013fa:	4618      	mov	r0, r3
 80013fc:	f7ff febc 	bl	8001178 <USART_PeripheralControl>

	// 3. Set the data length
	if (pUSARTxHandle->USART_Config.USART_WordLen == USART_9BIT_DATA)
 8001400:	687b      	ldr	r3, [r7, #4]
 8001402:	7b5b      	ldrb	r3, [r3, #13]
 8001404:	2b01      	cmp	r3, #1
 8001406:	d107      	bne.n	8001418 <USART_Init+0x38>
	{
		pUSARTxHandle->pUSARTx->CR1 |= (1 << 12);
 8001408:	687b      	ldr	r3, [r7, #4]
 800140a:	681b      	ldr	r3, [r3, #0]
 800140c:	68da      	ldr	r2, [r3, #12]
 800140e:	687b      	ldr	r3, [r7, #4]
 8001410:	681b      	ldr	r3, [r3, #0]
 8001412:	f442 5280 	orr.w	r2, r2, #4096	; 0x1000
 8001416:	60da      	str	r2, [r3, #12]
	}

	// 4. Parity setup
	if (pUSARTxHandle->USART_Config.USART_ParitySet != USART_PARITY_DISABLE)
 8001418:	687b      	ldr	r3, [r7, #4]
 800141a:	7b9b      	ldrb	r3, [r3, #14]
 800141c:	2b00      	cmp	r3, #0
 800141e:	d020      	beq.n	8001462 <USART_Init+0x82>
	{
		pUSARTxHandle->pUSARTx->CR1 |= (1 << 10);
 8001420:	687b      	ldr	r3, [r7, #4]
 8001422:	681b      	ldr	r3, [r3, #0]
 8001424:	68da      	ldr	r2, [r3, #12]
 8001426:	687b      	ldr	r3, [r7, #4]
 8001428:	681b      	ldr	r3, [r3, #0]
 800142a:	f442 6280 	orr.w	r2, r2, #1024	; 0x400
 800142e:	60da      	str	r2, [r3, #12]

		if (pUSARTxHandle->USART_Config.USART_ParitySet == USART_EVEN_PARITY)
 8001430:	687b      	ldr	r3, [r7, #4]
 8001432:	7b9b      	ldrb	r3, [r3, #14]
 8001434:	2b01      	cmp	r3, #1
 8001436:	d108      	bne.n	800144a <USART_Init+0x6a>
		{
			pUSARTxHandle->pUSARTx->CR1 &= ~(1 << 9);
 8001438:	687b      	ldr	r3, [r7, #4]
 800143a:	681b      	ldr	r3, [r3, #0]
 800143c:	68da      	ldr	r2, [r3, #12]
 800143e:	687b      	ldr	r3, [r7, #4]
 8001440:	681b      	ldr	r3, [r3, #0]
 8001442:	f422 7200 	bic.w	r2, r2, #512	; 0x200
 8001446:	60da      	str	r2, [r3, #12]
 8001448:	e00b      	b.n	8001462 <USART_Init+0x82>
		}
		else if (pUSARTxHandle->USART_Config.USART_ParitySet == USART_ODD_PARITY)
 800144a:	687b      	ldr	r3, [r7, #4]
 800144c:	7b9b      	ldrb	r3, [r3, #14]
 800144e:	2b02      	cmp	r3, #2
 8001450:	d107      	bne.n	8001462 <USART_Init+0x82>
		{
			pUSARTxHandle->pUSARTx->CR1 |= (1 << 9);
 8001452:	687b      	ldr	r3, [r7, #4]
 8001454:	681b      	ldr	r3, [r3, #0]
 8001456:	68da      	ldr	r2, [r3, #12]
 8001458:	687b      	ldr	r3, [r7, #4]
 800145a:	681b      	ldr	r3, [r3, #0]
 800145c:	f442 7200 	orr.w	r2, r2, #512	; 0x200
 8001460:	60da      	str	r2, [r3, #12]
		}
	}

	// 5. Set number of stop bits
	pUSARTxHandle->pUSARTx->CR2 &= ~(0x3 << 12);
 8001462:	687b      	ldr	r3, [r7, #4]
 8001464:	681b      	ldr	r3, [r3, #0]
 8001466:	691a      	ldr	r2, [r3, #16]
 8001468:	687b      	ldr	r3, [r7, #4]
 800146a:	681b      	ldr	r3, [r3, #0]
 800146c:	f422 5240 	bic.w	r2, r2, #12288	; 0x3000
 8001470:	611a      	str	r2, [r3, #16]

	if (pUSARTxHandle->USART_Config.USART_StopBits == USART_HALF_STOP)
 8001472:	687b      	ldr	r3, [r7, #4]
 8001474:	7b1b      	ldrb	r3, [r3, #12]
 8001476:	2b00      	cmp	r3, #0
 8001478:	d108      	bne.n	800148c <USART_Init+0xac>
	{
		pUSARTxHandle->pUSARTx->CR2 |= (1 << 12);
 800147a:	687b      	ldr	r3, [r7, #4]
 800147c:	681b      	ldr	r3, [r3, #0]
 800147e:	691a      	ldr	r2, [r3, #16]
 8001480:	687b      	ldr	r3, [r7, #4]
 8001482:	681b      	ldr	r3, [r3, #0]
 8001484:	f442 5280 	orr.w	r2, r2, #4096	; 0x1000
 8001488:	611a      	str	r2, [r3, #16]
 800148a:	e018      	b.n	80014be <USART_Init+0xde>
	}
	else if (pUSARTxHandle->USART_Config.USART_StopBits == USART_2_STOP)
 800148c:	687b      	ldr	r3, [r7, #4]
 800148e:	7b1b      	ldrb	r3, [r3, #12]
 8001490:	2b03      	cmp	r3, #3
 8001492:	d108      	bne.n	80014a6 <USART_Init+0xc6>
	{
		pUSARTxHandle->pUSARTx->CR2 |= (0x2 << 12);
 8001494:	687b      	ldr	r3, [r7, #4]
 8001496:	681b      	ldr	r3, [r3, #0]
 8001498:	691a      	ldr	r2, [r3, #16]
 800149a:	687b      	ldr	r3, [r7, #4]
 800149c:	681b      	ldr	r3, [r3, #0]
 800149e:	f442 5200 	orr.w	r2, r2, #8192	; 0x2000
 80014a2:	611a      	str	r2, [r3, #16]
 80014a4:	e00b      	b.n	80014be <USART_Init+0xde>
	}
	else if (pUSARTxHandle->USART_Config.USART_StopBits == USART_1ANDHALF_STOP)
 80014a6:	687b      	ldr	r3, [r7, #4]
 80014a8:	7b1b      	ldrb	r3, [r3, #12]
 80014aa:	2b02      	cmp	r3, #2
 80014ac:	d107      	bne.n	80014be <USART_Init+0xde>
	{
		pUSARTxHandle->pUSARTx->CR2 |= (0x3 << 12);
 80014ae:	687b      	ldr	r3, [r7, #4]
 80014b0:	681b      	ldr	r3, [r3, #0]
 80014b2:	691a      	ldr	r2, [r3, #16]
 80014b4:	687b      	ldr	r3, [r7, #4]
 80014b6:	681b      	ldr	r3, [r3, #0]
 80014b8:	f442 5240 	orr.w	r2, r2, #12288	; 0x3000
 80014bc:	611a      	str	r2, [r3, #16]
	}

	// 6. Set over sampling mode
	if (pUSARTxHandle->USART_Config.USART_Oversampling == USART_OVERSMPL_8)
 80014be:	687b      	ldr	r3, [r7, #4]
 80014c0:	7c1b      	ldrb	r3, [r3, #16]
 80014c2:	2b01      	cmp	r3, #1
 80014c4:	d108      	bne.n	80014d8 <USART_Init+0xf8>
	{
		pUSARTxHandle->pUSARTx->CR1 |= (1 << 15);
 80014c6:	687b      	ldr	r3, [r7, #4]
 80014c8:	681b      	ldr	r3, [r3, #0]
 80014ca:	68da      	ldr	r2, [r3, #12]
 80014cc:	687b      	ldr	r3, [r7, #4]
 80014ce:	681b      	ldr	r3, [r3, #0]
 80014d0:	f442 4200 	orr.w	r2, r2, #32768	; 0x8000
 80014d4:	60da      	str	r2, [r3, #12]
 80014d6:	e007      	b.n	80014e8 <USART_Init+0x108>
	}
	else
	{
		pUSARTxHandle->pUSARTx->CR1 &= ~(1 << 15);
 80014d8:	687b      	ldr	r3, [r7, #4]
 80014da:	681b      	ldr	r3, [r3, #0]
 80014dc:	68da      	ldr	r2, [r3, #12]
 80014de:	687b      	ldr	r3, [r7, #4]
 80014e0:	681b      	ldr	r3, [r3, #0]
 80014e2:	f422 4200 	bic.w	r2, r2, #32768	; 0x8000
 80014e6:	60da      	str	r2, [r3, #12]
	}

	// 7. Set baud rate
	USART_SetBaudRate(pUSARTxHandle->pUSARTx, pUSARTxHandle->USART_Config.USART_BaudRate);
 80014e8:	687b      	ldr	r3, [r7, #4]
 80014ea:	681a      	ldr	r2, [r3, #0]
 80014ec:	687b      	ldr	r3, [r7, #4]
 80014ee:	689b      	ldr	r3, [r3, #8]
 80014f0:	4619      	mov	r1, r3
 80014f2:	4610      	mov	r0, r2
 80014f4:	f7ff fed2 	bl	800129c <USART_SetBaudRate>

	// 8. Set Tx/Rx mode
	if (pUSARTxHandle->USART_Config.USART_Mode == USART_RX_ONLY)
 80014f8:	687b      	ldr	r3, [r7, #4]
 80014fa:	791b      	ldrb	r3, [r3, #4]
 80014fc:	2b00      	cmp	r3, #0
 80014fe:	d108      	bne.n	8001512 <USART_Init+0x132>
	{
		pUSARTxHandle->pUSARTx->CR1 |= (1 << 2);
 8001500:	687b      	ldr	r3, [r7, #4]
 8001502:	681b      	ldr	r3, [r3, #0]
 8001504:	68da      	ldr	r2, [r3, #12]
 8001506:	687b      	ldr	r3, [r7, #4]
 8001508:	681b      	ldr	r3, [r3, #0]
 800150a:	f042 0204 	orr.w	r2, r2, #4
 800150e:	60da      	str	r2, [r3, #12]
 8001510:	e018      	b.n	8001544 <USART_Init+0x164>
	}
	else if (pUSARTxHandle->USART_Config.USART_Mode == USART_TX_ONLY)
 8001512:	687b      	ldr	r3, [r7, #4]
 8001514:	791b      	ldrb	r3, [r3, #4]
 8001516:	2b01      	cmp	r3, #1
 8001518:	d108      	bne.n	800152c <USART_Init+0x14c>
	{
		pUSARTxHandle->pUSARTx->CR1 |= (1 << 3);
 800151a:	687b      	ldr	r3, [r7, #4]
 800151c:	681b      	ldr	r3, [r3, #0]
 800151e:	68da      	ldr	r2, [r3, #12]
 8001520:	687b      	ldr	r3, [r7, #4]
 8001522:	681b      	ldr	r3, [r3, #0]
 8001524:	f042 0208 	orr.w	r2, r2, #8
 8001528:	60da      	str	r2, [r3, #12]
 800152a:	e00b      	b.n	8001544 <USART_Init+0x164>
	}
	else if (pUSARTxHandle->USART_Config.USART_Mode == USART_RX_TX)
 800152c:	687b      	ldr	r3, [r7, #4]
 800152e:	791b      	ldrb	r3, [r3, #4]
 8001530:	2b02      	cmp	r3, #2
 8001532:	d107      	bne.n	8001544 <USART_Init+0x164>
	{
		pUSARTxHandle->pUSARTx->CR1 |= (1 << 3) | (1 << 2);
 8001534:	687b      	ldr	r3, [r7, #4]
 8001536:	681b      	ldr	r3, [r3, #0]
 8001538:	68da      	ldr	r2, [r3, #12]
 800153a:	687b      	ldr	r3, [r7, #4]
 800153c:	681b      	ldr	r3, [r3, #0]
 800153e:	f042 020c 	orr.w	r2, r2, #12
 8001542:	60da      	str	r2, [r3, #12]
	}

	// 9. Hardware flow control setup
	pUSARTxHandle->pUSARTx->CR2 &= ~(0x3 << 8);
 8001544:	687b      	ldr	r3, [r7, #4]
 8001546:	681b      	ldr	r3, [r3, #0]
 8001548:	691a      	ldr	r2, [r3, #16]
 800154a:	687b      	ldr	r3, [r7, #4]
 800154c:	681b      	ldr	r3, [r3, #0]
 800154e:	f422 7240 	bic.w	r2, r2, #768	; 0x300
 8001552:	611a      	str	r2, [r3, #16]

	if (pUSARTxHandle->USART_Config.USART_HWFlowCtrl == USART_RTS_ON)
 8001554:	687b      	ldr	r3, [r7, #4]
 8001556:	7bdb      	ldrb	r3, [r3, #15]
 8001558:	2b01      	cmp	r3, #1
 800155a:	d108      	bne.n	800156e <USART_Init+0x18e>
	{
		pUSARTxHandle->pUSARTx->CR3 |= (1 << 8);
 800155c:	687b      	ldr	r3, [r7, #4]
 800155e:	681b      	ldr	r3, [r3, #0]
 8001560:	695a      	ldr	r2, [r3, #20]
 8001562:	687b      	ldr	r3, [r7, #4]
 8001564:	681b      	ldr	r3, [r3, #0]
 8001566:	f442 7280 	orr.w	r2, r2, #256	; 0x100
 800156a:	615a      	str	r2, [r3, #20]
	}
	else if (pUSARTxHandle->USART_Config.USART_HWFlowCtrl == USART_RTS_CTS_ON)
	{
		pUSARTxHandle->pUSARTx->CR3 |= (0x3 << 8);
	}
}
 800156c:	e018      	b.n	80015a0 <USART_Init+0x1c0>
	else if (pUSARTxHandle->USART_Config.USART_HWFlowCtrl == USART_CTS_ON)
 800156e:	687b      	ldr	r3, [r7, #4]
 8001570:	7bdb      	ldrb	r3, [r3, #15]
 8001572:	2b02      	cmp	r3, #2
 8001574:	d108      	bne.n	8001588 <USART_Init+0x1a8>
		pUSARTxHandle->pUSARTx->CR3 |= (1 << 9);
 8001576:	687b      	ldr	r3, [r7, #4]
 8001578:	681b      	ldr	r3, [r3, #0]
 800157a:	695a      	ldr	r2, [r3, #20]
 800157c:	687b      	ldr	r3, [r7, #4]
 800157e:	681b      	ldr	r3, [r3, #0]
 8001580:	f442 7200 	orr.w	r2, r2, #512	; 0x200
 8001584:	615a      	str	r2, [r3, #20]
}
 8001586:	e00b      	b.n	80015a0 <USART_Init+0x1c0>
	else if (pUSARTxHandle->USART_Config.USART_HWFlowCtrl == USART_RTS_CTS_ON)
 8001588:	687b      	ldr	r3, [r7, #4]
 800158a:	7bdb      	ldrb	r3, [r3, #15]
 800158c:	2b03      	cmp	r3, #3
 800158e:	d107      	bne.n	80015a0 <USART_Init+0x1c0>
		pUSARTxHandle->pUSARTx->CR3 |= (0x3 << 8);
 8001590:	687b      	ldr	r3, [r7, #4]
 8001592:	681b      	ldr	r3, [r3, #0]
 8001594:	695a      	ldr	r2, [r3, #20]
 8001596:	687b      	ldr	r3, [r7, #4]
 8001598:	681b      	ldr	r3, [r3, #0]
 800159a:	f442 7240 	orr.w	r2, r2, #768	; 0x300
 800159e:	615a      	str	r2, [r3, #20]
}
 80015a0:	bf00      	nop
 80015a2:	3708      	adds	r7, #8
 80015a4:	46bd      	mov	sp, r7
 80015a6:	bd80      	pop	{r7, pc}

080015a8 <USART_Write>:
 * 				uint8_t* pTxBuffer - pointer to location of data to send
 * 				uint32_t len - number of 8-bit data packets to be sent
 *
 */
void USART_Write(USART_Handle_t *pUSARTxHandle, uint8_t *pTxBuffer, uint8_t len)
{
 80015a8:	b580      	push	{r7, lr}
 80015aa:	b084      	sub	sp, #16
 80015ac:	af00      	add	r7, sp, #0
 80015ae:	60f8      	str	r0, [r7, #12]
 80015b0:	60b9      	str	r1, [r7, #8]
 80015b2:	4613      	mov	r3, r2
 80015b4:	71fb      	strb	r3, [r7, #7]
	while (len > 0)
 80015b6:	e030      	b.n	800161a <USART_Write+0x72>
	{
		// 1. Send start with TE
		pUSARTxHandle->pUSARTx->CR1 |= (1 << 3);
 80015b8:	68fb      	ldr	r3, [r7, #12]
 80015ba:	681b      	ldr	r3, [r3, #0]
 80015bc:	68da      	ldr	r2, [r3, #12]
 80015be:	68fb      	ldr	r3, [r7, #12]
 80015c0:	681b      	ldr	r3, [r3, #0]
 80015c2:	f042 0208 	orr.w	r2, r2, #8
 80015c6:	60da      	str	r2, [r3, #12]

		// 2. Wait for TXE flag
		while(!USART_GetFlagStatus(pUSARTxHandle->pUSARTx, USART_FLAG_TXE));
 80015c8:	bf00      	nop
 80015ca:	68fb      	ldr	r3, [r7, #12]
 80015cc:	681b      	ldr	r3, [r3, #0]
 80015ce:	2180      	movs	r1, #128	; 0x80
 80015d0:	4618      	mov	r0, r3
 80015d2:	f7ff fdec 	bl	80011ae <USART_GetFlagStatus>
 80015d6:	4603      	mov	r3, r0
 80015d8:	2b00      	cmp	r3, #0
 80015da:	d0f6      	beq.n	80015ca <USART_Write+0x22>

		// 3. Write data (how many bits depends on word length and parity)
		if (pUSARTxHandle->USART_Config.USART_WordLen == USART_9BIT_DATA)
 80015dc:	68fb      	ldr	r3, [r7, #12]
 80015de:	7b5b      	ldrb	r3, [r3, #13]
 80015e0:	2b01      	cmp	r3, #1
 80015e2:	d10f      	bne.n	8001604 <USART_Write+0x5c>
		{
			// Send 9 bits of data
			pUSARTxHandle->pUSARTx->DR = (uint16_t)(*pTxBuffer) & (0x01FF);
 80015e4:	68bb      	ldr	r3, [r7, #8]
 80015e6:	781a      	ldrb	r2, [r3, #0]
 80015e8:	68fb      	ldr	r3, [r7, #12]
 80015ea:	681b      	ldr	r3, [r3, #0]
 80015ec:	605a      	str	r2, [r3, #4]

			// If parity disabled, 9 bits of useful data sent - increment data buffer accordingly
			if (pUSARTxHandle->USART_Config.USART_ParitySet == USART_PARITY_DISABLE)
 80015ee:	68fb      	ldr	r3, [r7, #12]
 80015f0:	7b9b      	ldrb	r3, [r3, #14]
 80015f2:	2b00      	cmp	r3, #0
 80015f4:	d10b      	bne.n	800160e <USART_Write+0x66>
			{
				pTxBuffer++;
 80015f6:	68bb      	ldr	r3, [r7, #8]
 80015f8:	3301      	adds	r3, #1
 80015fa:	60bb      	str	r3, [r7, #8]
				len--;
 80015fc:	79fb      	ldrb	r3, [r7, #7]
 80015fe:	3b01      	subs	r3, #1
 8001600:	71fb      	strb	r3, [r7, #7]
 8001602:	e004      	b.n	800160e <USART_Write+0x66>
			}
		}
		else
		{
			pUSARTxHandle->pUSARTx->DR = *pTxBuffer;
 8001604:	68bb      	ldr	r3, [r7, #8]
 8001606:	781a      	ldrb	r2, [r3, #0]
 8001608:	68fb      	ldr	r3, [r7, #12]
 800160a:	681b      	ldr	r3, [r3, #0]
 800160c:	605a      	str	r2, [r3, #4]
		}

		pTxBuffer++;
 800160e:	68bb      	ldr	r3, [r7, #8]
 8001610:	3301      	adds	r3, #1
 8001612:	60bb      	str	r3, [r7, #8]
		len--;
 8001614:	79fb      	ldrb	r3, [r7, #7]
 8001616:	3b01      	subs	r3, #1
 8001618:	71fb      	strb	r3, [r7, #7]
	while (len > 0)
 800161a:	79fb      	ldrb	r3, [r7, #7]
 800161c:	2b00      	cmp	r3, #0
 800161e:	d1cb      	bne.n	80015b8 <USART_Write+0x10>
	}

	// 4. Wait for TC flag to indicate transmission complete
	while(!USART_GetFlagStatus(pUSARTxHandle->pUSARTx, USART_FLAG_TC));
 8001620:	bf00      	nop
 8001622:	68fb      	ldr	r3, [r7, #12]
 8001624:	681b      	ldr	r3, [r3, #0]
 8001626:	2140      	movs	r1, #64	; 0x40
 8001628:	4618      	mov	r0, r3
 800162a:	f7ff fdc0 	bl	80011ae <USART_GetFlagStatus>
 800162e:	4603      	mov	r3, r0
 8001630:	2b00      	cmp	r3, #0
 8001632:	d0f6      	beq.n	8001622 <USART_Write+0x7a>

	// 5. Clear the TC bit
	USART_ClearFlag(pUSARTxHandle->pUSARTx, USART_FLAG_TC);
 8001634:	68fb      	ldr	r3, [r7, #12]
 8001636:	681b      	ldr	r3, [r3, #0]
 8001638:	2140      	movs	r1, #64	; 0x40
 800163a:	4618      	mov	r0, r3
 800163c:	f7ff fdc8 	bl	80011d0 <USART_ClearFlag>

	// 6. End transmission by clearing TE
	pUSARTxHandle->pUSARTx->CR1 &= ~(1 << 3);
 8001640:	68fb      	ldr	r3, [r7, #12]
 8001642:	681b      	ldr	r3, [r3, #0]
 8001644:	68da      	ldr	r2, [r3, #12]
 8001646:	68fb      	ldr	r3, [r7, #12]
 8001648:	681b      	ldr	r3, [r3, #0]
 800164a:	f022 0208 	bic.w	r2, r2, #8
 800164e:	60da      	str	r2, [r3, #12]
}
 8001650:	bf00      	nop
 8001652:	3710      	adds	r7, #16
 8001654:	46bd      	mov	sp, r7
 8001656:	bd80      	pop	{r7, pc}

08001658 <GPIO_AI_Init>:
/* Handle for USART2 transmitter to PC */
USART_Handle_t Usart_Handle;


/* Initialize the GPIO Pin for ADC input */
void GPIO_AI_Init() {
 8001658:	b580      	push	{r7, lr}
 800165a:	b084      	sub	sp, #16
 800165c:	af00      	add	r7, sp, #0
	// Initialization of LED driving GPIO
	GPIO_Handle_t GpioAI;

	GpioAI.pGPIOx = GPIOA;
 800165e:	4b0a      	ldr	r3, [pc, #40]	; (8001688 <GPIO_AI_Init+0x30>)
 8001660:	607b      	str	r3, [r7, #4]

	GpioAI.GPIO_PinConfig.GPIO_PinNumber = GPIO_PIN_NUM_0;
 8001662:	2300      	movs	r3, #0
 8001664:	723b      	strb	r3, [r7, #8]
	GpioAI.GPIO_PinConfig.GPIO_PinMode = GPIO_MODE_ANALOG;
 8001666:	2303      	movs	r3, #3
 8001668:	727b      	strb	r3, [r7, #9]
	GpioAI.GPIO_PinConfig.GPIO_OpType = GPIO_OTYPE_PUPL;
 800166a:	2300      	movs	r3, #0
 800166c:	733b      	strb	r3, [r7, #12]
	GpioAI.GPIO_PinConfig.GPIO_PinSpeed = GPIO_HIGH_SPEED;
 800166e:	2303      	movs	r3, #3
 8001670:	72bb      	strb	r3, [r7, #10]
	GpioAI.GPIO_PinConfig.GPIO_PuPdCtrl = GPIO_PUPD_NONE;
 8001672:	2300      	movs	r3, #0
 8001674:	72fb      	strb	r3, [r7, #11]

	GPIO_Init(&GpioAI);
 8001676:	1d3b      	adds	r3, r7, #4
 8001678:	4618      	mov	r0, r3
 800167a:	f7ff facf 	bl	8000c1c <GPIO_Init>
}
 800167e:	bf00      	nop
 8001680:	3710      	adds	r7, #16
 8001682:	46bd      	mov	sp, r7
 8001684:	bd80      	pop	{r7, pc}
 8001686:	bf00      	nop
 8001688:	40020000 	.word	0x40020000

0800168c <GPIO_USART_Config>:

/*
 * Set GPIO pins PA2 and PA3 as USART2 functions
 */
void GPIO_USART_Config()
{
 800168c:	b580      	push	{r7, lr}
 800168e:	b084      	sub	sp, #16
 8001690:	af00      	add	r7, sp, #0
	GPIO_Handle_t Gpio_usartHandle;
	Gpio_usartHandle.GPIO_PinConfig.GPIO_PinMode = GPIO_MODE_AF;
 8001692:	2302      	movs	r3, #2
 8001694:	727b      	strb	r3, [r7, #9]
	Gpio_usartHandle.GPIO_PinConfig.GPIO_PuPdCtrl = GPIO_PUPD_PU;
 8001696:	2301      	movs	r3, #1
 8001698:	72fb      	strb	r3, [r7, #11]
	Gpio_usartHandle.GPIO_PinConfig.GPIO_OpType = GPIO_OTYPE_PUPL;
 800169a:	2300      	movs	r3, #0
 800169c:	733b      	strb	r3, [r7, #12]
	Gpio_usartHandle.GPIO_PinConfig.GPIO_PinSpeed = GPIO_HIGH_SPEED;
 800169e:	2303      	movs	r3, #3
 80016a0:	72bb      	strb	r3, [r7, #10]
	Gpio_usartHandle.GPIO_PinConfig.GPIO_AfMode = GPIO_AF_7;
 80016a2:	2307      	movs	r3, #7
 80016a4:	737b      	strb	r3, [r7, #13]
	Gpio_usartHandle.pGPIOx = GPIOA;
 80016a6:	4b09      	ldr	r3, [pc, #36]	; (80016cc <GPIO_USART_Config+0x40>)
 80016a8:	607b      	str	r3, [r7, #4]

	// Set PA2 as USART2 Tx
	Gpio_usartHandle.GPIO_PinConfig.GPIO_PinNumber = GPIO_PIN_NUM_2;
 80016aa:	2302      	movs	r3, #2
 80016ac:	723b      	strb	r3, [r7, #8]
	GPIO_Init(&Gpio_usartHandle);
 80016ae:	1d3b      	adds	r3, r7, #4
 80016b0:	4618      	mov	r0, r3
 80016b2:	f7ff fab3 	bl	8000c1c <GPIO_Init>

	// Set PA3 as USART2 Rx
	Gpio_usartHandle.GPIO_PinConfig.GPIO_PinNumber = GPIO_PIN_NUM_3;
 80016b6:	2303      	movs	r3, #3
 80016b8:	723b      	strb	r3, [r7, #8]
	GPIO_Init(&Gpio_usartHandle);
 80016ba:	1d3b      	adds	r3, r7, #4
 80016bc:	4618      	mov	r0, r3
 80016be:	f7ff faad 	bl	8000c1c <GPIO_Init>
}
 80016c2:	bf00      	nop
 80016c4:	3710      	adds	r7, #16
 80016c6:	46bd      	mov	sp, r7
 80016c8:	bd80      	pop	{r7, pc}
 80016ca:	bf00      	nop
 80016cc:	40020000 	.word	0x40020000

080016d0 <USART2_Config>:

/*
 * Configure USART2 in Tx mode only
 */
void USART2_Config()
{
 80016d0:	b580      	push	{r7, lr}
 80016d2:	af00      	add	r7, sp, #0
	Usart_Handle.USART_Config.USART_Mode = USART_TX_ONLY;
 80016d4:	4b0e      	ldr	r3, [pc, #56]	; (8001710 <USART2_Config+0x40>)
 80016d6:	2201      	movs	r2, #1
 80016d8:	711a      	strb	r2, [r3, #4]
	Usart_Handle.USART_Config.USART_BaudRate = USART_BAUD_9600;
 80016da:	4b0d      	ldr	r3, [pc, #52]	; (8001710 <USART2_Config+0x40>)
 80016dc:	f44f 5216 	mov.w	r2, #9600	; 0x2580
 80016e0:	609a      	str	r2, [r3, #8]
	Usart_Handle.USART_Config.USART_ParitySet = USART_PARITY_DISABLE;
 80016e2:	4b0b      	ldr	r3, [pc, #44]	; (8001710 <USART2_Config+0x40>)
 80016e4:	2200      	movs	r2, #0
 80016e6:	739a      	strb	r2, [r3, #14]
	Usart_Handle.USART_Config.USART_StopBits = USART_1_STOP;
 80016e8:	4b09      	ldr	r3, [pc, #36]	; (8001710 <USART2_Config+0x40>)
 80016ea:	2201      	movs	r2, #1
 80016ec:	731a      	strb	r2, [r3, #12]
	Usart_Handle.USART_Config.USART_WordLen = USART_8BIT_DATA;
 80016ee:	4b08      	ldr	r3, [pc, #32]	; (8001710 <USART2_Config+0x40>)
 80016f0:	2200      	movs	r2, #0
 80016f2:	735a      	strb	r2, [r3, #13]
	Usart_Handle.USART_Config.USART_Oversampling = USART_OVERSMPL_8;
 80016f4:	4b06      	ldr	r3, [pc, #24]	; (8001710 <USART2_Config+0x40>)
 80016f6:	2201      	movs	r2, #1
 80016f8:	741a      	strb	r2, [r3, #16]
	Usart_Handle.USART_Config.USART_HWFlowCtrl = USART_HWCTRL_NONE;
 80016fa:	4b05      	ldr	r3, [pc, #20]	; (8001710 <USART2_Config+0x40>)
 80016fc:	2200      	movs	r2, #0
 80016fe:	73da      	strb	r2, [r3, #15]
	Usart_Handle.pUSARTx = USART2;
 8001700:	4b03      	ldr	r3, [pc, #12]	; (8001710 <USART2_Config+0x40>)
 8001702:	4a04      	ldr	r2, [pc, #16]	; (8001714 <USART2_Config+0x44>)
 8001704:	601a      	str	r2, [r3, #0]

	USART_Init(&Usart_Handle);
 8001706:	4802      	ldr	r0, [pc, #8]	; (8001710 <USART2_Config+0x40>)
 8001708:	f7ff fe6a 	bl	80013e0 <USART_Init>
}
 800170c:	bf00      	nop
 800170e:	bd80      	pop	{r7, pc}
 8001710:	200000b4 	.word	0x200000b4
 8001714:	40004400 	.word	0x40004400

08001718 <ADC1_In_Init>:


/* Initialize ADC1 for 12-bit readings */
void ADC1_In_Init() {
 8001718:	b580      	push	{r7, lr}
 800171a:	af00      	add	r7, sp, #0
	Adc_Input.pADCx = ADC1;
 800171c:	4b06      	ldr	r3, [pc, #24]	; (8001738 <ADC1_In_Init+0x20>)
 800171e:	4a07      	ldr	r2, [pc, #28]	; (800173c <ADC1_In_Init+0x24>)
 8001720:	601a      	str	r2, [r3, #0]

	Adc_Input.ADC_Config.ADC_Res = ADC_RES_12BIT;
 8001722:	4b05      	ldr	r3, [pc, #20]	; (8001738 <ADC1_In_Init+0x20>)
 8001724:	2200      	movs	r2, #0
 8001726:	711a      	strb	r2, [r3, #4]
	Adc_Input.ADC_Config.ADC_PreSc = ADC_PCLK_DIV2;
 8001728:	4b03      	ldr	r3, [pc, #12]	; (8001738 <ADC1_In_Init+0x20>)
 800172a:	2200      	movs	r2, #0
 800172c:	715a      	strb	r2, [r3, #5]

	ADC_Init(&Adc_Input);
 800172e:	4802      	ldr	r0, [pc, #8]	; (8001738 <ADC1_In_Init+0x20>)
 8001730:	f7ff f89c 	bl	800086c <ADC_Init>
}
 8001734:	bf00      	nop
 8001736:	bd80      	pop	{r7, pc}
 8001738:	200000a4 	.word	0x200000a4
 800173c:	40012000 	.word	0x40012000

08001740 <main>:


int main(void) {
 8001740:	b580      	push	{r7, lr}
 8001742:	b08e      	sub	sp, #56	; 0x38
 8001744:	af00      	add	r7, sp, #0
	/* Initialize GPIO PA0 as AI */
	GPIO_AI_Init();
 8001746:	f7ff ff87 	bl	8001658 <GPIO_AI_Init>

	/* Configure GPIO to USART2 and initialize USART2 Tx */
	GPIO_USART_Config();
 800174a:	f7ff ff9f 	bl	800168c <GPIO_USART_Config>
	USART2_Config();
 800174e:	f7ff ffbf 	bl	80016d0 <USART2_Config>

	/* Initialize ADC1 */
	ADC1_In_Init();
 8001752:	f7ff ffe1 	bl	8001718 <ADC1_In_Init>


	while(1) {
		/* Read data */
		uint16_t data = ADC_Read_Reg(&Adc_Input, ADC_IN0, ADC_SMP_3CYC);
 8001756:	2200      	movs	r2, #0
 8001758:	2100      	movs	r1, #0
 800175a:	480b      	ldr	r0, [pc, #44]	; (8001788 <main+0x48>)
 800175c:	f7ff f8d6 	bl	800090c <ADC_Read_Reg>
 8001760:	4603      	mov	r3, r0
 8001762:	86fb      	strh	r3, [r7, #54]	; 0x36

		/* Output to USART2 */
		char output[50];
		sprintf(output, "ADC output is: [%i]\r\n", data);
 8001764:	8efa      	ldrh	r2, [r7, #54]	; 0x36
 8001766:	1d3b      	adds	r3, r7, #4
 8001768:	4908      	ldr	r1, [pc, #32]	; (800178c <main+0x4c>)
 800176a:	4618      	mov	r0, r3
 800176c:	f000 f892 	bl	8001894 <siprintf>
		USART_Write(&Usart_Handle, (uint8_t*)output, strlen(output));
 8001770:	1d3b      	adds	r3, r7, #4
 8001772:	4618      	mov	r0, r3
 8001774:	f7fe fd4c 	bl	8000210 <strlen>
 8001778:	4603      	mov	r3, r0
 800177a:	b2da      	uxtb	r2, r3
 800177c:	1d3b      	adds	r3, r7, #4
 800177e:	4619      	mov	r1, r3
 8001780:	4803      	ldr	r0, [pc, #12]	; (8001790 <main+0x50>)
 8001782:	f7ff ff11 	bl	80015a8 <USART_Write>
	while(1) {
 8001786:	e7e6      	b.n	8001756 <main+0x16>
 8001788:	200000a4 	.word	0x200000a4
 800178c:	080020b8 	.word	0x080020b8
 8001790:	200000b4 	.word	0x200000b4

08001794 <_sbrk>:
/**
 _sbrk
 Increase program data space. Malloc and related functions depend on this
**/
caddr_t _sbrk(int incr)
{
 8001794:	b580      	push	{r7, lr}
 8001796:	b084      	sub	sp, #16
 8001798:	af00      	add	r7, sp, #0
 800179a:	6078      	str	r0, [r7, #4]
	extern char end asm("end");
	static char *heap_end;
	char *prev_heap_end;

	if (heap_end == 0)
 800179c:	4b11      	ldr	r3, [pc, #68]	; (80017e4 <_sbrk+0x50>)
 800179e:	681b      	ldr	r3, [r3, #0]
 80017a0:	2b00      	cmp	r3, #0
 80017a2:	d102      	bne.n	80017aa <_sbrk+0x16>
		heap_end = &end;
 80017a4:	4b0f      	ldr	r3, [pc, #60]	; (80017e4 <_sbrk+0x50>)
 80017a6:	4a10      	ldr	r2, [pc, #64]	; (80017e8 <_sbrk+0x54>)
 80017a8:	601a      	str	r2, [r3, #0]

	prev_heap_end = heap_end;
 80017aa:	4b0e      	ldr	r3, [pc, #56]	; (80017e4 <_sbrk+0x50>)
 80017ac:	681b      	ldr	r3, [r3, #0]
 80017ae:	60fb      	str	r3, [r7, #12]
	if (heap_end + incr > stack_ptr)
 80017b0:	4b0c      	ldr	r3, [pc, #48]	; (80017e4 <_sbrk+0x50>)
 80017b2:	681a      	ldr	r2, [r3, #0]
 80017b4:	687b      	ldr	r3, [r7, #4]
 80017b6:	4413      	add	r3, r2
 80017b8:	466a      	mov	r2, sp
 80017ba:	4293      	cmp	r3, r2
 80017bc:	d907      	bls.n	80017ce <_sbrk+0x3a>
	{
		errno = ENOMEM;
 80017be:	f000 f83f 	bl	8001840 <__errno>
 80017c2:	4602      	mov	r2, r0
 80017c4:	230c      	movs	r3, #12
 80017c6:	6013      	str	r3, [r2, #0]
		return (caddr_t) -1;
 80017c8:	f04f 33ff 	mov.w	r3, #4294967295
 80017cc:	e006      	b.n	80017dc <_sbrk+0x48>
	}

	heap_end += incr;
 80017ce:	4b05      	ldr	r3, [pc, #20]	; (80017e4 <_sbrk+0x50>)
 80017d0:	681a      	ldr	r2, [r3, #0]
 80017d2:	687b      	ldr	r3, [r7, #4]
 80017d4:	4413      	add	r3, r2
 80017d6:	4a03      	ldr	r2, [pc, #12]	; (80017e4 <_sbrk+0x50>)
 80017d8:	6013      	str	r3, [r2, #0]

	return (caddr_t) prev_heap_end;
 80017da:	68fb      	ldr	r3, [r7, #12]
}
 80017dc:	4618      	mov	r0, r3
 80017de:	3710      	adds	r7, #16
 80017e0:	46bd      	mov	sp, r7
 80017e2:	bd80      	pop	{r7, pc}
 80017e4:	20000098 	.word	0x20000098
 80017e8:	200000e0 	.word	0x200000e0

080017ec <Reset_Handler>:

  .section .text.Reset_Handler
  .weak Reset_Handler
  .type Reset_Handler, %function
Reset_Handler:
  ldr   r0, =_estack
 80017ec:	480d      	ldr	r0, [pc, #52]	; (8001824 <LoopForever+0x2>)
  mov   sp, r0          /* set stack pointer */
 80017ee:	4685      	mov	sp, r0

/* Copy the data segment initializers from flash to SRAM */
  ldr r0, =_sdata
 80017f0:	480d      	ldr	r0, [pc, #52]	; (8001828 <LoopForever+0x6>)
  ldr r1, =_edata
 80017f2:	490e      	ldr	r1, [pc, #56]	; (800182c <LoopForever+0xa>)
  ldr r2, =_sidata
 80017f4:	4a0e      	ldr	r2, [pc, #56]	; (8001830 <LoopForever+0xe>)
  movs r3, #0
 80017f6:	2300      	movs	r3, #0
  b LoopCopyDataInit
 80017f8:	e002      	b.n	8001800 <LoopCopyDataInit>

080017fa <CopyDataInit>:

CopyDataInit:
  ldr r4, [r2, r3]
 80017fa:	58d4      	ldr	r4, [r2, r3]
  str r4, [r0, r3]
 80017fc:	50c4      	str	r4, [r0, r3]
  adds r3, r3, #4
 80017fe:	3304      	adds	r3, #4

08001800 <LoopCopyDataInit>:

LoopCopyDataInit:
  adds r4, r0, r3
 8001800:	18c4      	adds	r4, r0, r3
  cmp r4, r1
 8001802:	428c      	cmp	r4, r1
  bcc CopyDataInit
 8001804:	d3f9      	bcc.n	80017fa <CopyDataInit>

/* Zero fill the bss segment. */
  ldr r2, =_sbss
 8001806:	4a0b      	ldr	r2, [pc, #44]	; (8001834 <LoopForever+0x12>)
  ldr r4, =_ebss
 8001808:	4c0b      	ldr	r4, [pc, #44]	; (8001838 <LoopForever+0x16>)
  movs r3, #0
 800180a:	2300      	movs	r3, #0
  b LoopFillZerobss
 800180c:	e001      	b.n	8001812 <LoopFillZerobss>

0800180e <FillZerobss>:

FillZerobss:
  str  r3, [r2]
 800180e:	6013      	str	r3, [r2, #0]
  adds r2, r2, #4
 8001810:	3204      	adds	r2, #4

08001812 <LoopFillZerobss>:

LoopFillZerobss:
  cmp r2, r4
 8001812:	42a2      	cmp	r2, r4
  bcc FillZerobss
 8001814:	d3fb      	bcc.n	800180e <FillZerobss>

/* Call the clock system intitialization function.*/
  bl  SystemInit
 8001816:	f3af 8000 	nop.w
/* Call static constructors */
  bl __libc_init_array
 800181a:	f000 f817 	bl	800184c <__libc_init_array>
/* Call the application's entry point.*/
  bl main
 800181e:	f7ff ff8f 	bl	8001740 <main>

08001822 <LoopForever>:

LoopForever:
    b LoopForever
 8001822:	e7fe      	b.n	8001822 <LoopForever>
  ldr   r0, =_estack
 8001824:	20020000 	.word	0x20020000
  ldr r0, =_sdata
 8001828:	20000000 	.word	0x20000000
  ldr r1, =_edata
 800182c:	2000007c 	.word	0x2000007c
  ldr r2, =_sidata
 8001830:	0800210c 	.word	0x0800210c
  ldr r2, =_sbss
 8001834:	2000007c 	.word	0x2000007c
  ldr r4, =_ebss
 8001838:	200000e0 	.word	0x200000e0

0800183c <ADC_IRQHandler>:
 * @retval : None
*/
  .section .text.Default_Handler,"ax",%progbits
Default_Handler:
Infinite_Loop:
  b Infinite_Loop
 800183c:	e7fe      	b.n	800183c <ADC_IRQHandler>
	...

08001840 <__errno>:
 8001840:	4b01      	ldr	r3, [pc, #4]	; (8001848 <__errno+0x8>)
 8001842:	6818      	ldr	r0, [r3, #0]
 8001844:	4770      	bx	lr
 8001846:	bf00      	nop
 8001848:	20000018 	.word	0x20000018

0800184c <__libc_init_array>:
 800184c:	b570      	push	{r4, r5, r6, lr}
 800184e:	4e0d      	ldr	r6, [pc, #52]	; (8001884 <__libc_init_array+0x38>)
 8001850:	4c0d      	ldr	r4, [pc, #52]	; (8001888 <__libc_init_array+0x3c>)
 8001852:	1ba4      	subs	r4, r4, r6
 8001854:	10a4      	asrs	r4, r4, #2
 8001856:	2500      	movs	r5, #0
 8001858:	42a5      	cmp	r5, r4
 800185a:	d109      	bne.n	8001870 <__libc_init_array+0x24>
 800185c:	4e0b      	ldr	r6, [pc, #44]	; (800188c <__libc_init_array+0x40>)
 800185e:	4c0c      	ldr	r4, [pc, #48]	; (8001890 <__libc_init_array+0x44>)
 8001860:	f000 fc1e 	bl	80020a0 <_init>
 8001864:	1ba4      	subs	r4, r4, r6
 8001866:	10a4      	asrs	r4, r4, #2
 8001868:	2500      	movs	r5, #0
 800186a:	42a5      	cmp	r5, r4
 800186c:	d105      	bne.n	800187a <__libc_init_array+0x2e>
 800186e:	bd70      	pop	{r4, r5, r6, pc}
 8001870:	f856 3025 	ldr.w	r3, [r6, r5, lsl #2]
 8001874:	4798      	blx	r3
 8001876:	3501      	adds	r5, #1
 8001878:	e7ee      	b.n	8001858 <__libc_init_array+0xc>
 800187a:	f856 3025 	ldr.w	r3, [r6, r5, lsl #2]
 800187e:	4798      	blx	r3
 8001880:	3501      	adds	r5, #1
 8001882:	e7f2      	b.n	800186a <__libc_init_array+0x1e>
 8001884:	08002104 	.word	0x08002104
 8001888:	08002104 	.word	0x08002104
 800188c:	08002104 	.word	0x08002104
 8001890:	08002108 	.word	0x08002108

08001894 <siprintf>:
 8001894:	b40e      	push	{r1, r2, r3}
 8001896:	b500      	push	{lr}
 8001898:	b09c      	sub	sp, #112	; 0x70
 800189a:	ab1d      	add	r3, sp, #116	; 0x74
 800189c:	9002      	str	r0, [sp, #8]
 800189e:	9006      	str	r0, [sp, #24]
 80018a0:	f06f 4100 	mvn.w	r1, #2147483648	; 0x80000000
 80018a4:	4809      	ldr	r0, [pc, #36]	; (80018cc <siprintf+0x38>)
 80018a6:	9107      	str	r1, [sp, #28]
 80018a8:	9104      	str	r1, [sp, #16]
 80018aa:	4909      	ldr	r1, [pc, #36]	; (80018d0 <siprintf+0x3c>)
 80018ac:	f853 2b04 	ldr.w	r2, [r3], #4
 80018b0:	9105      	str	r1, [sp, #20]
 80018b2:	6800      	ldr	r0, [r0, #0]
 80018b4:	9301      	str	r3, [sp, #4]
 80018b6:	a902      	add	r1, sp, #8
 80018b8:	f000 f866 	bl	8001988 <_svfiprintf_r>
 80018bc:	9b02      	ldr	r3, [sp, #8]
 80018be:	2200      	movs	r2, #0
 80018c0:	701a      	strb	r2, [r3, #0]
 80018c2:	b01c      	add	sp, #112	; 0x70
 80018c4:	f85d eb04 	ldr.w	lr, [sp], #4
 80018c8:	b003      	add	sp, #12
 80018ca:	4770      	bx	lr
 80018cc:	20000018 	.word	0x20000018
 80018d0:	ffff0208 	.word	0xffff0208

080018d4 <__ssputs_r>:
 80018d4:	e92d 47f0 	stmdb	sp!, {r4, r5, r6, r7, r8, r9, sl, lr}
 80018d8:	688e      	ldr	r6, [r1, #8]
 80018da:	429e      	cmp	r6, r3
 80018dc:	4682      	mov	sl, r0
 80018de:	460c      	mov	r4, r1
 80018e0:	4690      	mov	r8, r2
 80018e2:	4699      	mov	r9, r3
 80018e4:	d837      	bhi.n	8001956 <__ssputs_r+0x82>
 80018e6:	898a      	ldrh	r2, [r1, #12]
 80018e8:	f412 6f90 	tst.w	r2, #1152	; 0x480
 80018ec:	d031      	beq.n	8001952 <__ssputs_r+0x7e>
 80018ee:	6825      	ldr	r5, [r4, #0]
 80018f0:	6909      	ldr	r1, [r1, #16]
 80018f2:	1a6f      	subs	r7, r5, r1
 80018f4:	6965      	ldr	r5, [r4, #20]
 80018f6:	2302      	movs	r3, #2
 80018f8:	eb05 0545 	add.w	r5, r5, r5, lsl #1
 80018fc:	fb95 f5f3 	sdiv	r5, r5, r3
 8001900:	f109 0301 	add.w	r3, r9, #1
 8001904:	443b      	add	r3, r7
 8001906:	429d      	cmp	r5, r3
 8001908:	bf38      	it	cc
 800190a:	461d      	movcc	r5, r3
 800190c:	0553      	lsls	r3, r2, #21
 800190e:	d530      	bpl.n	8001972 <__ssputs_r+0x9e>
 8001910:	4629      	mov	r1, r5
 8001912:	f000 fb2b 	bl	8001f6c <_malloc_r>
 8001916:	4606      	mov	r6, r0
 8001918:	b950      	cbnz	r0, 8001930 <__ssputs_r+0x5c>
 800191a:	230c      	movs	r3, #12
 800191c:	f8ca 3000 	str.w	r3, [sl]
 8001920:	89a3      	ldrh	r3, [r4, #12]
 8001922:	f043 0340 	orr.w	r3, r3, #64	; 0x40
 8001926:	81a3      	strh	r3, [r4, #12]
 8001928:	f04f 30ff 	mov.w	r0, #4294967295
 800192c:	e8bd 87f0 	ldmia.w	sp!, {r4, r5, r6, r7, r8, r9, sl, pc}
 8001930:	463a      	mov	r2, r7
 8001932:	6921      	ldr	r1, [r4, #16]
 8001934:	f000 faa8 	bl	8001e88 <memcpy>
 8001938:	89a3      	ldrh	r3, [r4, #12]
 800193a:	f423 6390 	bic.w	r3, r3, #1152	; 0x480
 800193e:	f043 0380 	orr.w	r3, r3, #128	; 0x80
 8001942:	81a3      	strh	r3, [r4, #12]
 8001944:	6126      	str	r6, [r4, #16]
 8001946:	6165      	str	r5, [r4, #20]
 8001948:	443e      	add	r6, r7
 800194a:	1bed      	subs	r5, r5, r7
 800194c:	6026      	str	r6, [r4, #0]
 800194e:	60a5      	str	r5, [r4, #8]
 8001950:	464e      	mov	r6, r9
 8001952:	454e      	cmp	r6, r9
 8001954:	d900      	bls.n	8001958 <__ssputs_r+0x84>
 8001956:	464e      	mov	r6, r9
 8001958:	4632      	mov	r2, r6
 800195a:	4641      	mov	r1, r8
 800195c:	6820      	ldr	r0, [r4, #0]
 800195e:	f000 fa9e 	bl	8001e9e <memmove>
 8001962:	68a3      	ldr	r3, [r4, #8]
 8001964:	1b9b      	subs	r3, r3, r6
 8001966:	60a3      	str	r3, [r4, #8]
 8001968:	6823      	ldr	r3, [r4, #0]
 800196a:	441e      	add	r6, r3
 800196c:	6026      	str	r6, [r4, #0]
 800196e:	2000      	movs	r0, #0
 8001970:	e7dc      	b.n	800192c <__ssputs_r+0x58>
 8001972:	462a      	mov	r2, r5
 8001974:	f000 fb54 	bl	8002020 <_realloc_r>
 8001978:	4606      	mov	r6, r0
 800197a:	2800      	cmp	r0, #0
 800197c:	d1e2      	bne.n	8001944 <__ssputs_r+0x70>
 800197e:	6921      	ldr	r1, [r4, #16]
 8001980:	4650      	mov	r0, sl
 8001982:	f000 faa5 	bl	8001ed0 <_free_r>
 8001986:	e7c8      	b.n	800191a <__ssputs_r+0x46>

08001988 <_svfiprintf_r>:
 8001988:	e92d 4ff0 	stmdb	sp!, {r4, r5, r6, r7, r8, r9, sl, fp, lr}
 800198c:	461d      	mov	r5, r3
 800198e:	898b      	ldrh	r3, [r1, #12]
 8001990:	061f      	lsls	r7, r3, #24
 8001992:	b09d      	sub	sp, #116	; 0x74
 8001994:	4680      	mov	r8, r0
 8001996:	460c      	mov	r4, r1
 8001998:	4616      	mov	r6, r2
 800199a:	d50f      	bpl.n	80019bc <_svfiprintf_r+0x34>
 800199c:	690b      	ldr	r3, [r1, #16]
 800199e:	b96b      	cbnz	r3, 80019bc <_svfiprintf_r+0x34>
 80019a0:	2140      	movs	r1, #64	; 0x40
 80019a2:	f000 fae3 	bl	8001f6c <_malloc_r>
 80019a6:	6020      	str	r0, [r4, #0]
 80019a8:	6120      	str	r0, [r4, #16]
 80019aa:	b928      	cbnz	r0, 80019b8 <_svfiprintf_r+0x30>
 80019ac:	230c      	movs	r3, #12
 80019ae:	f8c8 3000 	str.w	r3, [r8]
 80019b2:	f04f 30ff 	mov.w	r0, #4294967295
 80019b6:	e0c8      	b.n	8001b4a <_svfiprintf_r+0x1c2>
 80019b8:	2340      	movs	r3, #64	; 0x40
 80019ba:	6163      	str	r3, [r4, #20]
 80019bc:	2300      	movs	r3, #0
 80019be:	9309      	str	r3, [sp, #36]	; 0x24
 80019c0:	2320      	movs	r3, #32
 80019c2:	f88d 3029 	strb.w	r3, [sp, #41]	; 0x29
 80019c6:	2330      	movs	r3, #48	; 0x30
 80019c8:	f88d 302a 	strb.w	r3, [sp, #42]	; 0x2a
 80019cc:	9503      	str	r5, [sp, #12]
 80019ce:	f04f 0b01 	mov.w	fp, #1
 80019d2:	4637      	mov	r7, r6
 80019d4:	463d      	mov	r5, r7
 80019d6:	f815 3b01 	ldrb.w	r3, [r5], #1
 80019da:	b10b      	cbz	r3, 80019e0 <_svfiprintf_r+0x58>
 80019dc:	2b25      	cmp	r3, #37	; 0x25
 80019de:	d13e      	bne.n	8001a5e <_svfiprintf_r+0xd6>
 80019e0:	ebb7 0a06 	subs.w	sl, r7, r6
 80019e4:	d00b      	beq.n	80019fe <_svfiprintf_r+0x76>
 80019e6:	4653      	mov	r3, sl
 80019e8:	4632      	mov	r2, r6
 80019ea:	4621      	mov	r1, r4
 80019ec:	4640      	mov	r0, r8
 80019ee:	f7ff ff71 	bl	80018d4 <__ssputs_r>
 80019f2:	3001      	adds	r0, #1
 80019f4:	f000 80a4 	beq.w	8001b40 <_svfiprintf_r+0x1b8>
 80019f8:	9b09      	ldr	r3, [sp, #36]	; 0x24
 80019fa:	4453      	add	r3, sl
 80019fc:	9309      	str	r3, [sp, #36]	; 0x24
 80019fe:	783b      	ldrb	r3, [r7, #0]
 8001a00:	2b00      	cmp	r3, #0
 8001a02:	f000 809d 	beq.w	8001b40 <_svfiprintf_r+0x1b8>
 8001a06:	2300      	movs	r3, #0
 8001a08:	f04f 32ff 	mov.w	r2, #4294967295
 8001a0c:	e9cd 2305 	strd	r2, r3, [sp, #20]
 8001a10:	9304      	str	r3, [sp, #16]
 8001a12:	9307      	str	r3, [sp, #28]
 8001a14:	f88d 3053 	strb.w	r3, [sp, #83]	; 0x53
 8001a18:	931a      	str	r3, [sp, #104]	; 0x68
 8001a1a:	462f      	mov	r7, r5
 8001a1c:	2205      	movs	r2, #5
 8001a1e:	f817 1b01 	ldrb.w	r1, [r7], #1
 8001a22:	4850      	ldr	r0, [pc, #320]	; (8001b64 <_svfiprintf_r+0x1dc>)
 8001a24:	f7fe fbfc 	bl	8000220 <memchr>
 8001a28:	9b04      	ldr	r3, [sp, #16]
 8001a2a:	b9d0      	cbnz	r0, 8001a62 <_svfiprintf_r+0xda>
 8001a2c:	06d9      	lsls	r1, r3, #27
 8001a2e:	bf44      	itt	mi
 8001a30:	2220      	movmi	r2, #32
 8001a32:	f88d 2053 	strbmi.w	r2, [sp, #83]	; 0x53
 8001a36:	071a      	lsls	r2, r3, #28
 8001a38:	bf44      	itt	mi
 8001a3a:	222b      	movmi	r2, #43	; 0x2b
 8001a3c:	f88d 2053 	strbmi.w	r2, [sp, #83]	; 0x53
 8001a40:	782a      	ldrb	r2, [r5, #0]
 8001a42:	2a2a      	cmp	r2, #42	; 0x2a
 8001a44:	d015      	beq.n	8001a72 <_svfiprintf_r+0xea>
 8001a46:	9a07      	ldr	r2, [sp, #28]
 8001a48:	462f      	mov	r7, r5
 8001a4a:	2000      	movs	r0, #0
 8001a4c:	250a      	movs	r5, #10
 8001a4e:	4639      	mov	r1, r7
 8001a50:	f811 3b01 	ldrb.w	r3, [r1], #1
 8001a54:	3b30      	subs	r3, #48	; 0x30
 8001a56:	2b09      	cmp	r3, #9
 8001a58:	d94d      	bls.n	8001af6 <_svfiprintf_r+0x16e>
 8001a5a:	b1b8      	cbz	r0, 8001a8c <_svfiprintf_r+0x104>
 8001a5c:	e00f      	b.n	8001a7e <_svfiprintf_r+0xf6>
 8001a5e:	462f      	mov	r7, r5
 8001a60:	e7b8      	b.n	80019d4 <_svfiprintf_r+0x4c>
 8001a62:	4a40      	ldr	r2, [pc, #256]	; (8001b64 <_svfiprintf_r+0x1dc>)
 8001a64:	1a80      	subs	r0, r0, r2
 8001a66:	fa0b f000 	lsl.w	r0, fp, r0
 8001a6a:	4318      	orrs	r0, r3
 8001a6c:	9004      	str	r0, [sp, #16]
 8001a6e:	463d      	mov	r5, r7
 8001a70:	e7d3      	b.n	8001a1a <_svfiprintf_r+0x92>
 8001a72:	9a03      	ldr	r2, [sp, #12]
 8001a74:	1d11      	adds	r1, r2, #4
 8001a76:	6812      	ldr	r2, [r2, #0]
 8001a78:	9103      	str	r1, [sp, #12]
 8001a7a:	2a00      	cmp	r2, #0
 8001a7c:	db01      	blt.n	8001a82 <_svfiprintf_r+0xfa>
 8001a7e:	9207      	str	r2, [sp, #28]
 8001a80:	e004      	b.n	8001a8c <_svfiprintf_r+0x104>
 8001a82:	4252      	negs	r2, r2
 8001a84:	f043 0302 	orr.w	r3, r3, #2
 8001a88:	9207      	str	r2, [sp, #28]
 8001a8a:	9304      	str	r3, [sp, #16]
 8001a8c:	783b      	ldrb	r3, [r7, #0]
 8001a8e:	2b2e      	cmp	r3, #46	; 0x2e
 8001a90:	d10c      	bne.n	8001aac <_svfiprintf_r+0x124>
 8001a92:	787b      	ldrb	r3, [r7, #1]
 8001a94:	2b2a      	cmp	r3, #42	; 0x2a
 8001a96:	d133      	bne.n	8001b00 <_svfiprintf_r+0x178>
 8001a98:	9b03      	ldr	r3, [sp, #12]
 8001a9a:	1d1a      	adds	r2, r3, #4
 8001a9c:	681b      	ldr	r3, [r3, #0]
 8001a9e:	9203      	str	r2, [sp, #12]
 8001aa0:	2b00      	cmp	r3, #0
 8001aa2:	bfb8      	it	lt
 8001aa4:	f04f 33ff 	movlt.w	r3, #4294967295
 8001aa8:	3702      	adds	r7, #2
 8001aaa:	9305      	str	r3, [sp, #20]
 8001aac:	4d2e      	ldr	r5, [pc, #184]	; (8001b68 <_svfiprintf_r+0x1e0>)
 8001aae:	7839      	ldrb	r1, [r7, #0]
 8001ab0:	2203      	movs	r2, #3
 8001ab2:	4628      	mov	r0, r5
 8001ab4:	f7fe fbb4 	bl	8000220 <memchr>
 8001ab8:	b138      	cbz	r0, 8001aca <_svfiprintf_r+0x142>
 8001aba:	2340      	movs	r3, #64	; 0x40
 8001abc:	1b40      	subs	r0, r0, r5
 8001abe:	fa03 f000 	lsl.w	r0, r3, r0
 8001ac2:	9b04      	ldr	r3, [sp, #16]
 8001ac4:	4303      	orrs	r3, r0
 8001ac6:	3701      	adds	r7, #1
 8001ac8:	9304      	str	r3, [sp, #16]
 8001aca:	7839      	ldrb	r1, [r7, #0]
 8001acc:	4827      	ldr	r0, [pc, #156]	; (8001b6c <_svfiprintf_r+0x1e4>)
 8001ace:	f88d 1028 	strb.w	r1, [sp, #40]	; 0x28
 8001ad2:	2206      	movs	r2, #6
 8001ad4:	1c7e      	adds	r6, r7, #1
 8001ad6:	f7fe fba3 	bl	8000220 <memchr>
 8001ada:	2800      	cmp	r0, #0
 8001adc:	d038      	beq.n	8001b50 <_svfiprintf_r+0x1c8>
 8001ade:	4b24      	ldr	r3, [pc, #144]	; (8001b70 <_svfiprintf_r+0x1e8>)
 8001ae0:	bb13      	cbnz	r3, 8001b28 <_svfiprintf_r+0x1a0>
 8001ae2:	9b03      	ldr	r3, [sp, #12]
 8001ae4:	3307      	adds	r3, #7
 8001ae6:	f023 0307 	bic.w	r3, r3, #7
 8001aea:	3308      	adds	r3, #8
 8001aec:	9303      	str	r3, [sp, #12]
 8001aee:	9b09      	ldr	r3, [sp, #36]	; 0x24
 8001af0:	444b      	add	r3, r9
 8001af2:	9309      	str	r3, [sp, #36]	; 0x24
 8001af4:	e76d      	b.n	80019d2 <_svfiprintf_r+0x4a>
 8001af6:	fb05 3202 	mla	r2, r5, r2, r3
 8001afa:	2001      	movs	r0, #1
 8001afc:	460f      	mov	r7, r1
 8001afe:	e7a6      	b.n	8001a4e <_svfiprintf_r+0xc6>
 8001b00:	2300      	movs	r3, #0
 8001b02:	3701      	adds	r7, #1
 8001b04:	9305      	str	r3, [sp, #20]
 8001b06:	4619      	mov	r1, r3
 8001b08:	250a      	movs	r5, #10
 8001b0a:	4638      	mov	r0, r7
 8001b0c:	f810 2b01 	ldrb.w	r2, [r0], #1
 8001b10:	3a30      	subs	r2, #48	; 0x30
 8001b12:	2a09      	cmp	r2, #9
 8001b14:	d903      	bls.n	8001b1e <_svfiprintf_r+0x196>
 8001b16:	2b00      	cmp	r3, #0
 8001b18:	d0c8      	beq.n	8001aac <_svfiprintf_r+0x124>
 8001b1a:	9105      	str	r1, [sp, #20]
 8001b1c:	e7c6      	b.n	8001aac <_svfiprintf_r+0x124>
 8001b1e:	fb05 2101 	mla	r1, r5, r1, r2
 8001b22:	2301      	movs	r3, #1
 8001b24:	4607      	mov	r7, r0
 8001b26:	e7f0      	b.n	8001b0a <_svfiprintf_r+0x182>
 8001b28:	ab03      	add	r3, sp, #12
 8001b2a:	9300      	str	r3, [sp, #0]
 8001b2c:	4622      	mov	r2, r4
 8001b2e:	4b11      	ldr	r3, [pc, #68]	; (8001b74 <_svfiprintf_r+0x1ec>)
 8001b30:	a904      	add	r1, sp, #16
 8001b32:	4640      	mov	r0, r8
 8001b34:	f3af 8000 	nop.w
 8001b38:	f1b0 3fff 	cmp.w	r0, #4294967295
 8001b3c:	4681      	mov	r9, r0
 8001b3e:	d1d6      	bne.n	8001aee <_svfiprintf_r+0x166>
 8001b40:	89a3      	ldrh	r3, [r4, #12]
 8001b42:	065b      	lsls	r3, r3, #25
 8001b44:	f53f af35 	bmi.w	80019b2 <_svfiprintf_r+0x2a>
 8001b48:	9809      	ldr	r0, [sp, #36]	; 0x24
 8001b4a:	b01d      	add	sp, #116	; 0x74
 8001b4c:	e8bd 8ff0 	ldmia.w	sp!, {r4, r5, r6, r7, r8, r9, sl, fp, pc}
 8001b50:	ab03      	add	r3, sp, #12
 8001b52:	9300      	str	r3, [sp, #0]
 8001b54:	4622      	mov	r2, r4
 8001b56:	4b07      	ldr	r3, [pc, #28]	; (8001b74 <_svfiprintf_r+0x1ec>)
 8001b58:	a904      	add	r1, sp, #16
 8001b5a:	4640      	mov	r0, r8
 8001b5c:	f000 f882 	bl	8001c64 <_printf_i>
 8001b60:	e7ea      	b.n	8001b38 <_svfiprintf_r+0x1b0>
 8001b62:	bf00      	nop
 8001b64:	080020ce 	.word	0x080020ce
 8001b68:	080020d4 	.word	0x080020d4
 8001b6c:	080020d8 	.word	0x080020d8
 8001b70:	00000000 	.word	0x00000000
 8001b74:	080018d5 	.word	0x080018d5

08001b78 <_printf_common>:
 8001b78:	e92d 47f0 	stmdb	sp!, {r4, r5, r6, r7, r8, r9, sl, lr}
 8001b7c:	4691      	mov	r9, r2
 8001b7e:	461f      	mov	r7, r3
 8001b80:	688a      	ldr	r2, [r1, #8]
 8001b82:	690b      	ldr	r3, [r1, #16]
 8001b84:	f8dd 8020 	ldr.w	r8, [sp, #32]
 8001b88:	4293      	cmp	r3, r2
 8001b8a:	bfb8      	it	lt
 8001b8c:	4613      	movlt	r3, r2
 8001b8e:	f8c9 3000 	str.w	r3, [r9]
 8001b92:	f891 2043 	ldrb.w	r2, [r1, #67]	; 0x43
 8001b96:	4606      	mov	r6, r0
 8001b98:	460c      	mov	r4, r1
 8001b9a:	b112      	cbz	r2, 8001ba2 <_printf_common+0x2a>
 8001b9c:	3301      	adds	r3, #1
 8001b9e:	f8c9 3000 	str.w	r3, [r9]
 8001ba2:	6823      	ldr	r3, [r4, #0]
 8001ba4:	0699      	lsls	r1, r3, #26
 8001ba6:	bf42      	ittt	mi
 8001ba8:	f8d9 3000 	ldrmi.w	r3, [r9]
 8001bac:	3302      	addmi	r3, #2
 8001bae:	f8c9 3000 	strmi.w	r3, [r9]
 8001bb2:	6825      	ldr	r5, [r4, #0]
 8001bb4:	f015 0506 	ands.w	r5, r5, #6
 8001bb8:	d107      	bne.n	8001bca <_printf_common+0x52>
 8001bba:	f104 0a19 	add.w	sl, r4, #25
 8001bbe:	68e3      	ldr	r3, [r4, #12]
 8001bc0:	f8d9 2000 	ldr.w	r2, [r9]
 8001bc4:	1a9b      	subs	r3, r3, r2
 8001bc6:	42ab      	cmp	r3, r5
 8001bc8:	dc28      	bgt.n	8001c1c <_printf_common+0xa4>
 8001bca:	f894 3043 	ldrb.w	r3, [r4, #67]	; 0x43
 8001bce:	6822      	ldr	r2, [r4, #0]
 8001bd0:	3300      	adds	r3, #0
 8001bd2:	bf18      	it	ne
 8001bd4:	2301      	movne	r3, #1
 8001bd6:	0692      	lsls	r2, r2, #26
 8001bd8:	d42d      	bmi.n	8001c36 <_printf_common+0xbe>
 8001bda:	f104 0243 	add.w	r2, r4, #67	; 0x43
 8001bde:	4639      	mov	r1, r7
 8001be0:	4630      	mov	r0, r6
 8001be2:	47c0      	blx	r8
 8001be4:	3001      	adds	r0, #1
 8001be6:	d020      	beq.n	8001c2a <_printf_common+0xb2>
 8001be8:	6823      	ldr	r3, [r4, #0]
 8001bea:	68e5      	ldr	r5, [r4, #12]
 8001bec:	f8d9 2000 	ldr.w	r2, [r9]
 8001bf0:	f003 0306 	and.w	r3, r3, #6
 8001bf4:	2b04      	cmp	r3, #4
 8001bf6:	bf08      	it	eq
 8001bf8:	1aad      	subeq	r5, r5, r2
 8001bfa:	68a3      	ldr	r3, [r4, #8]
 8001bfc:	6922      	ldr	r2, [r4, #16]
 8001bfe:	bf0c      	ite	eq
 8001c00:	ea25 75e5 	biceq.w	r5, r5, r5, asr #31
 8001c04:	2500      	movne	r5, #0
 8001c06:	4293      	cmp	r3, r2
 8001c08:	bfc4      	itt	gt
 8001c0a:	1a9b      	subgt	r3, r3, r2
 8001c0c:	18ed      	addgt	r5, r5, r3
 8001c0e:	f04f 0900 	mov.w	r9, #0
 8001c12:	341a      	adds	r4, #26
 8001c14:	454d      	cmp	r5, r9
 8001c16:	d11a      	bne.n	8001c4e <_printf_common+0xd6>
 8001c18:	2000      	movs	r0, #0
 8001c1a:	e008      	b.n	8001c2e <_printf_common+0xb6>
 8001c1c:	2301      	movs	r3, #1
 8001c1e:	4652      	mov	r2, sl
 8001c20:	4639      	mov	r1, r7
 8001c22:	4630      	mov	r0, r6
 8001c24:	47c0      	blx	r8
 8001c26:	3001      	adds	r0, #1
 8001c28:	d103      	bne.n	8001c32 <_printf_common+0xba>
 8001c2a:	f04f 30ff 	mov.w	r0, #4294967295
 8001c2e:	e8bd 87f0 	ldmia.w	sp!, {r4, r5, r6, r7, r8, r9, sl, pc}
 8001c32:	3501      	adds	r5, #1
 8001c34:	e7c3      	b.n	8001bbe <_printf_common+0x46>
 8001c36:	18e1      	adds	r1, r4, r3
 8001c38:	1c5a      	adds	r2, r3, #1
 8001c3a:	2030      	movs	r0, #48	; 0x30
 8001c3c:	f881 0043 	strb.w	r0, [r1, #67]	; 0x43
 8001c40:	4422      	add	r2, r4
 8001c42:	f894 1045 	ldrb.w	r1, [r4, #69]	; 0x45
 8001c46:	f882 1043 	strb.w	r1, [r2, #67]	; 0x43
 8001c4a:	3302      	adds	r3, #2
 8001c4c:	e7c5      	b.n	8001bda <_printf_common+0x62>
 8001c4e:	2301      	movs	r3, #1
 8001c50:	4622      	mov	r2, r4
 8001c52:	4639      	mov	r1, r7
 8001c54:	4630      	mov	r0, r6
 8001c56:	47c0      	blx	r8
 8001c58:	3001      	adds	r0, #1
 8001c5a:	d0e6      	beq.n	8001c2a <_printf_common+0xb2>
 8001c5c:	f109 0901 	add.w	r9, r9, #1
 8001c60:	e7d8      	b.n	8001c14 <_printf_common+0x9c>
	...

08001c64 <_printf_i>:
 8001c64:	e92d 43f0 	stmdb	sp!, {r4, r5, r6, r7, r8, r9, lr}
 8001c68:	f101 0c43 	add.w	ip, r1, #67	; 0x43
 8001c6c:	460c      	mov	r4, r1
 8001c6e:	7e09      	ldrb	r1, [r1, #24]
 8001c70:	b085      	sub	sp, #20
 8001c72:	296e      	cmp	r1, #110	; 0x6e
 8001c74:	4617      	mov	r7, r2
 8001c76:	4606      	mov	r6, r0
 8001c78:	4698      	mov	r8, r3
 8001c7a:	9a0c      	ldr	r2, [sp, #48]	; 0x30
 8001c7c:	f000 80b3 	beq.w	8001de6 <_printf_i+0x182>
 8001c80:	d822      	bhi.n	8001cc8 <_printf_i+0x64>
 8001c82:	2963      	cmp	r1, #99	; 0x63
 8001c84:	d036      	beq.n	8001cf4 <_printf_i+0x90>
 8001c86:	d80a      	bhi.n	8001c9e <_printf_i+0x3a>
 8001c88:	2900      	cmp	r1, #0
 8001c8a:	f000 80b9 	beq.w	8001e00 <_printf_i+0x19c>
 8001c8e:	2958      	cmp	r1, #88	; 0x58
 8001c90:	f000 8083 	beq.w	8001d9a <_printf_i+0x136>
 8001c94:	f104 0542 	add.w	r5, r4, #66	; 0x42
 8001c98:	f884 1042 	strb.w	r1, [r4, #66]	; 0x42
 8001c9c:	e032      	b.n	8001d04 <_printf_i+0xa0>
 8001c9e:	2964      	cmp	r1, #100	; 0x64
 8001ca0:	d001      	beq.n	8001ca6 <_printf_i+0x42>
 8001ca2:	2969      	cmp	r1, #105	; 0x69
 8001ca4:	d1f6      	bne.n	8001c94 <_printf_i+0x30>
 8001ca6:	6820      	ldr	r0, [r4, #0]
 8001ca8:	6813      	ldr	r3, [r2, #0]
 8001caa:	0605      	lsls	r5, r0, #24
 8001cac:	f103 0104 	add.w	r1, r3, #4
 8001cb0:	d52a      	bpl.n	8001d08 <_printf_i+0xa4>
 8001cb2:	681b      	ldr	r3, [r3, #0]
 8001cb4:	6011      	str	r1, [r2, #0]
 8001cb6:	2b00      	cmp	r3, #0
 8001cb8:	da03      	bge.n	8001cc2 <_printf_i+0x5e>
 8001cba:	222d      	movs	r2, #45	; 0x2d
 8001cbc:	425b      	negs	r3, r3
 8001cbe:	f884 2043 	strb.w	r2, [r4, #67]	; 0x43
 8001cc2:	486f      	ldr	r0, [pc, #444]	; (8001e80 <_printf_i+0x21c>)
 8001cc4:	220a      	movs	r2, #10
 8001cc6:	e039      	b.n	8001d3c <_printf_i+0xd8>
 8001cc8:	2973      	cmp	r1, #115	; 0x73
 8001cca:	f000 809d 	beq.w	8001e08 <_printf_i+0x1a4>
 8001cce:	d808      	bhi.n	8001ce2 <_printf_i+0x7e>
 8001cd0:	296f      	cmp	r1, #111	; 0x6f
 8001cd2:	d020      	beq.n	8001d16 <_printf_i+0xb2>
 8001cd4:	2970      	cmp	r1, #112	; 0x70
 8001cd6:	d1dd      	bne.n	8001c94 <_printf_i+0x30>
 8001cd8:	6823      	ldr	r3, [r4, #0]
 8001cda:	f043 0320 	orr.w	r3, r3, #32
 8001cde:	6023      	str	r3, [r4, #0]
 8001ce0:	e003      	b.n	8001cea <_printf_i+0x86>
 8001ce2:	2975      	cmp	r1, #117	; 0x75
 8001ce4:	d017      	beq.n	8001d16 <_printf_i+0xb2>
 8001ce6:	2978      	cmp	r1, #120	; 0x78
 8001ce8:	d1d4      	bne.n	8001c94 <_printf_i+0x30>
 8001cea:	2378      	movs	r3, #120	; 0x78
 8001cec:	f884 3045 	strb.w	r3, [r4, #69]	; 0x45
 8001cf0:	4864      	ldr	r0, [pc, #400]	; (8001e84 <_printf_i+0x220>)
 8001cf2:	e055      	b.n	8001da0 <_printf_i+0x13c>
 8001cf4:	6813      	ldr	r3, [r2, #0]
 8001cf6:	1d19      	adds	r1, r3, #4
 8001cf8:	681b      	ldr	r3, [r3, #0]
 8001cfa:	6011      	str	r1, [r2, #0]
 8001cfc:	f104 0542 	add.w	r5, r4, #66	; 0x42
 8001d00:	f884 3042 	strb.w	r3, [r4, #66]	; 0x42
 8001d04:	2301      	movs	r3, #1
 8001d06:	e08c      	b.n	8001e22 <_printf_i+0x1be>
 8001d08:	681b      	ldr	r3, [r3, #0]
 8001d0a:	6011      	str	r1, [r2, #0]
 8001d0c:	f010 0f40 	tst.w	r0, #64	; 0x40
 8001d10:	bf18      	it	ne
 8001d12:	b21b      	sxthne	r3, r3
 8001d14:	e7cf      	b.n	8001cb6 <_printf_i+0x52>
 8001d16:	6813      	ldr	r3, [r2, #0]
 8001d18:	6825      	ldr	r5, [r4, #0]
 8001d1a:	1d18      	adds	r0, r3, #4
 8001d1c:	6010      	str	r0, [r2, #0]
 8001d1e:	0628      	lsls	r0, r5, #24
 8001d20:	d501      	bpl.n	8001d26 <_printf_i+0xc2>
 8001d22:	681b      	ldr	r3, [r3, #0]
 8001d24:	e002      	b.n	8001d2c <_printf_i+0xc8>
 8001d26:	0668      	lsls	r0, r5, #25
 8001d28:	d5fb      	bpl.n	8001d22 <_printf_i+0xbe>
 8001d2a:	881b      	ldrh	r3, [r3, #0]
 8001d2c:	4854      	ldr	r0, [pc, #336]	; (8001e80 <_printf_i+0x21c>)
 8001d2e:	296f      	cmp	r1, #111	; 0x6f
 8001d30:	bf14      	ite	ne
 8001d32:	220a      	movne	r2, #10
 8001d34:	2208      	moveq	r2, #8
 8001d36:	2100      	movs	r1, #0
 8001d38:	f884 1043 	strb.w	r1, [r4, #67]	; 0x43
 8001d3c:	6865      	ldr	r5, [r4, #4]
 8001d3e:	60a5      	str	r5, [r4, #8]
 8001d40:	2d00      	cmp	r5, #0
 8001d42:	f2c0 8095 	blt.w	8001e70 <_printf_i+0x20c>
 8001d46:	6821      	ldr	r1, [r4, #0]
 8001d48:	f021 0104 	bic.w	r1, r1, #4
 8001d4c:	6021      	str	r1, [r4, #0]
 8001d4e:	2b00      	cmp	r3, #0
 8001d50:	d13d      	bne.n	8001dce <_printf_i+0x16a>
 8001d52:	2d00      	cmp	r5, #0
 8001d54:	f040 808e 	bne.w	8001e74 <_printf_i+0x210>
 8001d58:	4665      	mov	r5, ip
 8001d5a:	2a08      	cmp	r2, #8
 8001d5c:	d10b      	bne.n	8001d76 <_printf_i+0x112>
 8001d5e:	6823      	ldr	r3, [r4, #0]
 8001d60:	07db      	lsls	r3, r3, #31
 8001d62:	d508      	bpl.n	8001d76 <_printf_i+0x112>
 8001d64:	6923      	ldr	r3, [r4, #16]
 8001d66:	6862      	ldr	r2, [r4, #4]
 8001d68:	429a      	cmp	r2, r3
 8001d6a:	bfde      	ittt	le
 8001d6c:	2330      	movle	r3, #48	; 0x30
 8001d6e:	f805 3c01 	strble.w	r3, [r5, #-1]
 8001d72:	f105 35ff 	addle.w	r5, r5, #4294967295
 8001d76:	ebac 0305 	sub.w	r3, ip, r5
 8001d7a:	6123      	str	r3, [r4, #16]
 8001d7c:	f8cd 8000 	str.w	r8, [sp]
 8001d80:	463b      	mov	r3, r7
 8001d82:	aa03      	add	r2, sp, #12
 8001d84:	4621      	mov	r1, r4
 8001d86:	4630      	mov	r0, r6
 8001d88:	f7ff fef6 	bl	8001b78 <_printf_common>
 8001d8c:	3001      	adds	r0, #1
 8001d8e:	d14d      	bne.n	8001e2c <_printf_i+0x1c8>
 8001d90:	f04f 30ff 	mov.w	r0, #4294967295
 8001d94:	b005      	add	sp, #20
 8001d96:	e8bd 83f0 	ldmia.w	sp!, {r4, r5, r6, r7, r8, r9, pc}
 8001d9a:	4839      	ldr	r0, [pc, #228]	; (8001e80 <_printf_i+0x21c>)
 8001d9c:	f884 1045 	strb.w	r1, [r4, #69]	; 0x45
 8001da0:	6813      	ldr	r3, [r2, #0]
 8001da2:	6821      	ldr	r1, [r4, #0]
 8001da4:	1d1d      	adds	r5, r3, #4
 8001da6:	681b      	ldr	r3, [r3, #0]
 8001da8:	6015      	str	r5, [r2, #0]
 8001daa:	060a      	lsls	r2, r1, #24
 8001dac:	d50b      	bpl.n	8001dc6 <_printf_i+0x162>
 8001dae:	07ca      	lsls	r2, r1, #31
 8001db0:	bf44      	itt	mi
 8001db2:	f041 0120 	orrmi.w	r1, r1, #32
 8001db6:	6021      	strmi	r1, [r4, #0]
 8001db8:	b91b      	cbnz	r3, 8001dc2 <_printf_i+0x15e>
 8001dba:	6822      	ldr	r2, [r4, #0]
 8001dbc:	f022 0220 	bic.w	r2, r2, #32
 8001dc0:	6022      	str	r2, [r4, #0]
 8001dc2:	2210      	movs	r2, #16
 8001dc4:	e7b7      	b.n	8001d36 <_printf_i+0xd2>
 8001dc6:	064d      	lsls	r5, r1, #25
 8001dc8:	bf48      	it	mi
 8001dca:	b29b      	uxthmi	r3, r3
 8001dcc:	e7ef      	b.n	8001dae <_printf_i+0x14a>
 8001dce:	4665      	mov	r5, ip
 8001dd0:	fbb3 f1f2 	udiv	r1, r3, r2
 8001dd4:	fb02 3311 	mls	r3, r2, r1, r3
 8001dd8:	5cc3      	ldrb	r3, [r0, r3]
 8001dda:	f805 3d01 	strb.w	r3, [r5, #-1]!
 8001dde:	460b      	mov	r3, r1
 8001de0:	2900      	cmp	r1, #0
 8001de2:	d1f5      	bne.n	8001dd0 <_printf_i+0x16c>
 8001de4:	e7b9      	b.n	8001d5a <_printf_i+0xf6>
 8001de6:	6813      	ldr	r3, [r2, #0]
 8001de8:	6825      	ldr	r5, [r4, #0]
 8001dea:	6961      	ldr	r1, [r4, #20]
 8001dec:	1d18      	adds	r0, r3, #4
 8001dee:	6010      	str	r0, [r2, #0]
 8001df0:	0628      	lsls	r0, r5, #24
 8001df2:	681b      	ldr	r3, [r3, #0]
 8001df4:	d501      	bpl.n	8001dfa <_printf_i+0x196>
 8001df6:	6019      	str	r1, [r3, #0]
 8001df8:	e002      	b.n	8001e00 <_printf_i+0x19c>
 8001dfa:	066a      	lsls	r2, r5, #25
 8001dfc:	d5fb      	bpl.n	8001df6 <_printf_i+0x192>
 8001dfe:	8019      	strh	r1, [r3, #0]
 8001e00:	2300      	movs	r3, #0
 8001e02:	6123      	str	r3, [r4, #16]
 8001e04:	4665      	mov	r5, ip
 8001e06:	e7b9      	b.n	8001d7c <_printf_i+0x118>
 8001e08:	6813      	ldr	r3, [r2, #0]
 8001e0a:	1d19      	adds	r1, r3, #4
 8001e0c:	6011      	str	r1, [r2, #0]
 8001e0e:	681d      	ldr	r5, [r3, #0]
 8001e10:	6862      	ldr	r2, [r4, #4]
 8001e12:	2100      	movs	r1, #0
 8001e14:	4628      	mov	r0, r5
 8001e16:	f7fe fa03 	bl	8000220 <memchr>
 8001e1a:	b108      	cbz	r0, 8001e20 <_printf_i+0x1bc>
 8001e1c:	1b40      	subs	r0, r0, r5
 8001e1e:	6060      	str	r0, [r4, #4]
 8001e20:	6863      	ldr	r3, [r4, #4]
 8001e22:	6123      	str	r3, [r4, #16]
 8001e24:	2300      	movs	r3, #0
 8001e26:	f884 3043 	strb.w	r3, [r4, #67]	; 0x43
 8001e2a:	e7a7      	b.n	8001d7c <_printf_i+0x118>
 8001e2c:	6923      	ldr	r3, [r4, #16]
 8001e2e:	462a      	mov	r2, r5
 8001e30:	4639      	mov	r1, r7
 8001e32:	4630      	mov	r0, r6
 8001e34:	47c0      	blx	r8
 8001e36:	3001      	adds	r0, #1
 8001e38:	d0aa      	beq.n	8001d90 <_printf_i+0x12c>
 8001e3a:	6823      	ldr	r3, [r4, #0]
 8001e3c:	079b      	lsls	r3, r3, #30
 8001e3e:	d413      	bmi.n	8001e68 <_printf_i+0x204>
 8001e40:	68e0      	ldr	r0, [r4, #12]
 8001e42:	9b03      	ldr	r3, [sp, #12]
 8001e44:	4298      	cmp	r0, r3
 8001e46:	bfb8      	it	lt
 8001e48:	4618      	movlt	r0, r3
 8001e4a:	e7a3      	b.n	8001d94 <_printf_i+0x130>
 8001e4c:	2301      	movs	r3, #1
 8001e4e:	464a      	mov	r2, r9
 8001e50:	4639      	mov	r1, r7
 8001e52:	4630      	mov	r0, r6
 8001e54:	47c0      	blx	r8
 8001e56:	3001      	adds	r0, #1
 8001e58:	d09a      	beq.n	8001d90 <_printf_i+0x12c>
 8001e5a:	3501      	adds	r5, #1
 8001e5c:	68e3      	ldr	r3, [r4, #12]
 8001e5e:	9a03      	ldr	r2, [sp, #12]
 8001e60:	1a9b      	subs	r3, r3, r2
 8001e62:	42ab      	cmp	r3, r5
 8001e64:	dcf2      	bgt.n	8001e4c <_printf_i+0x1e8>
 8001e66:	e7eb      	b.n	8001e40 <_printf_i+0x1dc>
 8001e68:	2500      	movs	r5, #0
 8001e6a:	f104 0919 	add.w	r9, r4, #25
 8001e6e:	e7f5      	b.n	8001e5c <_printf_i+0x1f8>
 8001e70:	2b00      	cmp	r3, #0
 8001e72:	d1ac      	bne.n	8001dce <_printf_i+0x16a>
 8001e74:	7803      	ldrb	r3, [r0, #0]
 8001e76:	f884 3042 	strb.w	r3, [r4, #66]	; 0x42
 8001e7a:	f104 0542 	add.w	r5, r4, #66	; 0x42
 8001e7e:	e76c      	b.n	8001d5a <_printf_i+0xf6>
 8001e80:	080020df 	.word	0x080020df
 8001e84:	080020f0 	.word	0x080020f0

08001e88 <memcpy>:
 8001e88:	b510      	push	{r4, lr}
 8001e8a:	1e43      	subs	r3, r0, #1
 8001e8c:	440a      	add	r2, r1
 8001e8e:	4291      	cmp	r1, r2
 8001e90:	d100      	bne.n	8001e94 <memcpy+0xc>
 8001e92:	bd10      	pop	{r4, pc}
 8001e94:	f811 4b01 	ldrb.w	r4, [r1], #1
 8001e98:	f803 4f01 	strb.w	r4, [r3, #1]!
 8001e9c:	e7f7      	b.n	8001e8e <memcpy+0x6>

08001e9e <memmove>:
 8001e9e:	4288      	cmp	r0, r1
 8001ea0:	b510      	push	{r4, lr}
 8001ea2:	eb01 0302 	add.w	r3, r1, r2
 8001ea6:	d807      	bhi.n	8001eb8 <memmove+0x1a>
 8001ea8:	1e42      	subs	r2, r0, #1
 8001eaa:	4299      	cmp	r1, r3
 8001eac:	d00a      	beq.n	8001ec4 <memmove+0x26>
 8001eae:	f811 4b01 	ldrb.w	r4, [r1], #1
 8001eb2:	f802 4f01 	strb.w	r4, [r2, #1]!
 8001eb6:	e7f8      	b.n	8001eaa <memmove+0xc>
 8001eb8:	4283      	cmp	r3, r0
 8001eba:	d9f5      	bls.n	8001ea8 <memmove+0xa>
 8001ebc:	1881      	adds	r1, r0, r2
 8001ebe:	1ad2      	subs	r2, r2, r3
 8001ec0:	42d3      	cmn	r3, r2
 8001ec2:	d100      	bne.n	8001ec6 <memmove+0x28>
 8001ec4:	bd10      	pop	{r4, pc}
 8001ec6:	f813 4d01 	ldrb.w	r4, [r3, #-1]!
 8001eca:	f801 4d01 	strb.w	r4, [r1, #-1]!
 8001ece:	e7f7      	b.n	8001ec0 <memmove+0x22>

08001ed0 <_free_r>:
 8001ed0:	b538      	push	{r3, r4, r5, lr}
 8001ed2:	4605      	mov	r5, r0
 8001ed4:	2900      	cmp	r1, #0
 8001ed6:	d045      	beq.n	8001f64 <_free_r+0x94>
 8001ed8:	f851 3c04 	ldr.w	r3, [r1, #-4]
 8001edc:	1f0c      	subs	r4, r1, #4
 8001ede:	2b00      	cmp	r3, #0
 8001ee0:	bfb8      	it	lt
 8001ee2:	18e4      	addlt	r4, r4, r3
 8001ee4:	f000 f8d2 	bl	800208c <__malloc_lock>
 8001ee8:	4a1f      	ldr	r2, [pc, #124]	; (8001f68 <_free_r+0x98>)
 8001eea:	6813      	ldr	r3, [r2, #0]
 8001eec:	4610      	mov	r0, r2
 8001eee:	b933      	cbnz	r3, 8001efe <_free_r+0x2e>
 8001ef0:	6063      	str	r3, [r4, #4]
 8001ef2:	6014      	str	r4, [r2, #0]
 8001ef4:	4628      	mov	r0, r5
 8001ef6:	e8bd 4038 	ldmia.w	sp!, {r3, r4, r5, lr}
 8001efa:	f000 b8c8 	b.w	800208e <__malloc_unlock>
 8001efe:	42a3      	cmp	r3, r4
 8001f00:	d90c      	bls.n	8001f1c <_free_r+0x4c>
 8001f02:	6821      	ldr	r1, [r4, #0]
 8001f04:	1862      	adds	r2, r4, r1
 8001f06:	4293      	cmp	r3, r2
 8001f08:	bf04      	itt	eq
 8001f0a:	681a      	ldreq	r2, [r3, #0]
 8001f0c:	685b      	ldreq	r3, [r3, #4]
 8001f0e:	6063      	str	r3, [r4, #4]
 8001f10:	bf04      	itt	eq
 8001f12:	1852      	addeq	r2, r2, r1
 8001f14:	6022      	streq	r2, [r4, #0]
 8001f16:	6004      	str	r4, [r0, #0]
 8001f18:	e7ec      	b.n	8001ef4 <_free_r+0x24>
 8001f1a:	4613      	mov	r3, r2
 8001f1c:	685a      	ldr	r2, [r3, #4]
 8001f1e:	b10a      	cbz	r2, 8001f24 <_free_r+0x54>
 8001f20:	42a2      	cmp	r2, r4
 8001f22:	d9fa      	bls.n	8001f1a <_free_r+0x4a>
 8001f24:	6819      	ldr	r1, [r3, #0]
 8001f26:	1858      	adds	r0, r3, r1
 8001f28:	42a0      	cmp	r0, r4
 8001f2a:	d10b      	bne.n	8001f44 <_free_r+0x74>
 8001f2c:	6820      	ldr	r0, [r4, #0]
 8001f2e:	4401      	add	r1, r0
 8001f30:	1858      	adds	r0, r3, r1
 8001f32:	4282      	cmp	r2, r0
 8001f34:	6019      	str	r1, [r3, #0]
 8001f36:	d1dd      	bne.n	8001ef4 <_free_r+0x24>
 8001f38:	6810      	ldr	r0, [r2, #0]
 8001f3a:	6852      	ldr	r2, [r2, #4]
 8001f3c:	605a      	str	r2, [r3, #4]
 8001f3e:	4401      	add	r1, r0
 8001f40:	6019      	str	r1, [r3, #0]
 8001f42:	e7d7      	b.n	8001ef4 <_free_r+0x24>
 8001f44:	d902      	bls.n	8001f4c <_free_r+0x7c>
 8001f46:	230c      	movs	r3, #12
 8001f48:	602b      	str	r3, [r5, #0]
 8001f4a:	e7d3      	b.n	8001ef4 <_free_r+0x24>
 8001f4c:	6820      	ldr	r0, [r4, #0]
 8001f4e:	1821      	adds	r1, r4, r0
 8001f50:	428a      	cmp	r2, r1
 8001f52:	bf04      	itt	eq
 8001f54:	6811      	ldreq	r1, [r2, #0]
 8001f56:	6852      	ldreq	r2, [r2, #4]
 8001f58:	6062      	str	r2, [r4, #4]
 8001f5a:	bf04      	itt	eq
 8001f5c:	1809      	addeq	r1, r1, r0
 8001f5e:	6021      	streq	r1, [r4, #0]
 8001f60:	605c      	str	r4, [r3, #4]
 8001f62:	e7c7      	b.n	8001ef4 <_free_r+0x24>
 8001f64:	bd38      	pop	{r3, r4, r5, pc}
 8001f66:	bf00      	nop
 8001f68:	2000009c 	.word	0x2000009c

08001f6c <_malloc_r>:
 8001f6c:	b570      	push	{r4, r5, r6, lr}
 8001f6e:	1ccd      	adds	r5, r1, #3
 8001f70:	f025 0503 	bic.w	r5, r5, #3
 8001f74:	3508      	adds	r5, #8
 8001f76:	2d0c      	cmp	r5, #12
 8001f78:	bf38      	it	cc
 8001f7a:	250c      	movcc	r5, #12
 8001f7c:	2d00      	cmp	r5, #0
 8001f7e:	4606      	mov	r6, r0
 8001f80:	db01      	blt.n	8001f86 <_malloc_r+0x1a>
 8001f82:	42a9      	cmp	r1, r5
 8001f84:	d903      	bls.n	8001f8e <_malloc_r+0x22>
 8001f86:	230c      	movs	r3, #12
 8001f88:	6033      	str	r3, [r6, #0]
 8001f8a:	2000      	movs	r0, #0
 8001f8c:	bd70      	pop	{r4, r5, r6, pc}
 8001f8e:	f000 f87d 	bl	800208c <__malloc_lock>
 8001f92:	4a21      	ldr	r2, [pc, #132]	; (8002018 <_malloc_r+0xac>)
 8001f94:	6814      	ldr	r4, [r2, #0]
 8001f96:	4621      	mov	r1, r4
 8001f98:	b991      	cbnz	r1, 8001fc0 <_malloc_r+0x54>
 8001f9a:	4c20      	ldr	r4, [pc, #128]	; (800201c <_malloc_r+0xb0>)
 8001f9c:	6823      	ldr	r3, [r4, #0]
 8001f9e:	b91b      	cbnz	r3, 8001fa8 <_malloc_r+0x3c>
 8001fa0:	4630      	mov	r0, r6
 8001fa2:	f000 f863 	bl	800206c <_sbrk_r>
 8001fa6:	6020      	str	r0, [r4, #0]
 8001fa8:	4629      	mov	r1, r5
 8001faa:	4630      	mov	r0, r6
 8001fac:	f000 f85e 	bl	800206c <_sbrk_r>
 8001fb0:	1c43      	adds	r3, r0, #1
 8001fb2:	d124      	bne.n	8001ffe <_malloc_r+0x92>
 8001fb4:	230c      	movs	r3, #12
 8001fb6:	6033      	str	r3, [r6, #0]
 8001fb8:	4630      	mov	r0, r6
 8001fba:	f000 f868 	bl	800208e <__malloc_unlock>
 8001fbe:	e7e4      	b.n	8001f8a <_malloc_r+0x1e>
 8001fc0:	680b      	ldr	r3, [r1, #0]
 8001fc2:	1b5b      	subs	r3, r3, r5
 8001fc4:	d418      	bmi.n	8001ff8 <_malloc_r+0x8c>
 8001fc6:	2b0b      	cmp	r3, #11
 8001fc8:	d90f      	bls.n	8001fea <_malloc_r+0x7e>
 8001fca:	600b      	str	r3, [r1, #0]
 8001fcc:	50cd      	str	r5, [r1, r3]
 8001fce:	18cc      	adds	r4, r1, r3
 8001fd0:	4630      	mov	r0, r6
 8001fd2:	f000 f85c 	bl	800208e <__malloc_unlock>
 8001fd6:	f104 000b 	add.w	r0, r4, #11
 8001fda:	1d23      	adds	r3, r4, #4
 8001fdc:	f020 0007 	bic.w	r0, r0, #7
 8001fe0:	1ac3      	subs	r3, r0, r3
 8001fe2:	d0d3      	beq.n	8001f8c <_malloc_r+0x20>
 8001fe4:	425a      	negs	r2, r3
 8001fe6:	50e2      	str	r2, [r4, r3]
 8001fe8:	e7d0      	b.n	8001f8c <_malloc_r+0x20>
 8001fea:	428c      	cmp	r4, r1
 8001fec:	684b      	ldr	r3, [r1, #4]
 8001fee:	bf16      	itet	ne
 8001ff0:	6063      	strne	r3, [r4, #4]
 8001ff2:	6013      	streq	r3, [r2, #0]
 8001ff4:	460c      	movne	r4, r1
 8001ff6:	e7eb      	b.n	8001fd0 <_malloc_r+0x64>
 8001ff8:	460c      	mov	r4, r1
 8001ffa:	6849      	ldr	r1, [r1, #4]
 8001ffc:	e7cc      	b.n	8001f98 <_malloc_r+0x2c>
 8001ffe:	1cc4      	adds	r4, r0, #3
 8002000:	f024 0403 	bic.w	r4, r4, #3
 8002004:	42a0      	cmp	r0, r4
 8002006:	d005      	beq.n	8002014 <_malloc_r+0xa8>
 8002008:	1a21      	subs	r1, r4, r0
 800200a:	4630      	mov	r0, r6
 800200c:	f000 f82e 	bl	800206c <_sbrk_r>
 8002010:	3001      	adds	r0, #1
 8002012:	d0cf      	beq.n	8001fb4 <_malloc_r+0x48>
 8002014:	6025      	str	r5, [r4, #0]
 8002016:	e7db      	b.n	8001fd0 <_malloc_r+0x64>
 8002018:	2000009c 	.word	0x2000009c
 800201c:	200000a0 	.word	0x200000a0

08002020 <_realloc_r>:
 8002020:	b5f8      	push	{r3, r4, r5, r6, r7, lr}
 8002022:	4607      	mov	r7, r0
 8002024:	4614      	mov	r4, r2
 8002026:	460e      	mov	r6, r1
 8002028:	b921      	cbnz	r1, 8002034 <_realloc_r+0x14>
 800202a:	4611      	mov	r1, r2
 800202c:	e8bd 40f8 	ldmia.w	sp!, {r3, r4, r5, r6, r7, lr}
 8002030:	f7ff bf9c 	b.w	8001f6c <_malloc_r>
 8002034:	b922      	cbnz	r2, 8002040 <_realloc_r+0x20>
 8002036:	f7ff ff4b 	bl	8001ed0 <_free_r>
 800203a:	4625      	mov	r5, r4
 800203c:	4628      	mov	r0, r5
 800203e:	bdf8      	pop	{r3, r4, r5, r6, r7, pc}
 8002040:	f000 f826 	bl	8002090 <_malloc_usable_size_r>
 8002044:	42a0      	cmp	r0, r4
 8002046:	d20f      	bcs.n	8002068 <_realloc_r+0x48>
 8002048:	4621      	mov	r1, r4
 800204a:	4638      	mov	r0, r7
 800204c:	f7ff ff8e 	bl	8001f6c <_malloc_r>
 8002050:	4605      	mov	r5, r0
 8002052:	2800      	cmp	r0, #0
 8002054:	d0f2      	beq.n	800203c <_realloc_r+0x1c>
 8002056:	4631      	mov	r1, r6
 8002058:	4622      	mov	r2, r4
 800205a:	f7ff ff15 	bl	8001e88 <memcpy>
 800205e:	4631      	mov	r1, r6
 8002060:	4638      	mov	r0, r7
 8002062:	f7ff ff35 	bl	8001ed0 <_free_r>
 8002066:	e7e9      	b.n	800203c <_realloc_r+0x1c>
 8002068:	4635      	mov	r5, r6
 800206a:	e7e7      	b.n	800203c <_realloc_r+0x1c>

0800206c <_sbrk_r>:
 800206c:	b538      	push	{r3, r4, r5, lr}
 800206e:	4c06      	ldr	r4, [pc, #24]	; (8002088 <_sbrk_r+0x1c>)
 8002070:	2300      	movs	r3, #0
 8002072:	4605      	mov	r5, r0
 8002074:	4608      	mov	r0, r1
 8002076:	6023      	str	r3, [r4, #0]
 8002078:	f7ff fb8c 	bl	8001794 <_sbrk>
 800207c:	1c43      	adds	r3, r0, #1
 800207e:	d102      	bne.n	8002086 <_sbrk_r+0x1a>
 8002080:	6823      	ldr	r3, [r4, #0]
 8002082:	b103      	cbz	r3, 8002086 <_sbrk_r+0x1a>
 8002084:	602b      	str	r3, [r5, #0]
 8002086:	bd38      	pop	{r3, r4, r5, pc}
 8002088:	200000dc 	.word	0x200000dc

0800208c <__malloc_lock>:
 800208c:	4770      	bx	lr

0800208e <__malloc_unlock>:
 800208e:	4770      	bx	lr

08002090 <_malloc_usable_size_r>:
 8002090:	f851 3c04 	ldr.w	r3, [r1, #-4]
 8002094:	1f18      	subs	r0, r3, #4
 8002096:	2b00      	cmp	r3, #0
 8002098:	bfbc      	itt	lt
 800209a:	580b      	ldrlt	r3, [r1, r0]
 800209c:	18c0      	addlt	r0, r0, r3
 800209e:	4770      	bx	lr

080020a0 <_init>:
 80020a0:	b5f8      	push	{r3, r4, r5, r6, r7, lr}
 80020a2:	bf00      	nop
 80020a4:	bcf8      	pop	{r3, r4, r5, r6, r7}
 80020a6:	bc08      	pop	{r3}
 80020a8:	469e      	mov	lr, r3
 80020aa:	4770      	bx	lr

080020ac <_fini>:
 80020ac:	b5f8      	push	{r3, r4, r5, r6, r7, lr}
 80020ae:	bf00      	nop
 80020b0:	bcf8      	pop	{r3, r4, r5, r6, r7}
 80020b2:	bc08      	pop	{r3}
 80020b4:	469e      	mov	lr, r3
 80020b6:	4770      	bx	lr
